(dp0
S'METTS MARK'
p1
(dp2
S'exercised_share_stock'
p3
F0.0693345742205677
sS'to_messages'
p4
I807
sS'stock_vs_salary'
p5
F0.00014550651148689076
sS'deferral_payments'
p6
I0
sS'expenses'
p7
F0.41221263928170204
sS'poi'
p8
I00
sS'long_term_incentive'
p9
F0.0
sS'email_address'
p10
S'mark.metts@enron.com'
p11
sS'from_poi_to_this_person'
p12
F0.07196969696969698
sS'incentive_vs_salary'
p13
F0.0
sS'restricted_stock_deferred'
p14
F0.0
sS'bonus_vs_salary'
p15
F0.0668615078588665
sS'shared_receipt_with_poi'
p16
F0.12715087846404638
sS'loan_advances'
p17
I0
sS'from_messages'
p18
I29
sS'other'
p19
I1740
sS'received_from_poi_share'
p20
F0.21675103543488267
sS'director_fees'
p21
F0.0
sS'bonus'
p22
F0.075
sS'sent_to_poi_share'
p23
F0.0345
sS'deferred_income'
p24
F0.0
sS'from_this_person_to_poi'
p25
F0.0016420361247947454
sS'total_stock_value'
p26
F0.012799625895430116
sS'restricted_stock'
p27
F0.1836645287185717
sS'salary'
p28
F0.329165684296536
sS'total_payments'
p29
I1061827
sS'exercised_stock_options'
p30
F0.0
sS'deferral_share_total_payment'
p31
F0.5
sS'expenses_vs_salary'
p32
F0.0021841645528223844
ssS'BAXTER JOHN C'
p33
(dp34
g3
F0.6546300604932526
sg4
I0
sg5
F0.0036180860436449305
sg6
I1295738
sg7
F0.04895896626639798
sg8
I00
sg9
F0.3082451353957703
sg10
I0
sg12
F0.0
sg13
F0.10743214026606553
sg14
F0.0
sg15
F0.18313033978999543
sg16
F0.0
sg17
I0
sg18
I0
sg19
I2660303
sg20
F0.0
sg21
F0.0
sg22
F0.15
sg23
F0.0
sg24
F0.39552007113371646
sg25
F0.0
sg26
F0.21701822618471175
sg27
F0.37700878903505797
sg28
F0.2403600244047737
sg29
I5634343
sg30
F0.1944936914644951
sg31
F0.615
sg32
F0.0003549902822469275
ssS'ELLIOTT STEVEN'
p35
(dp36
g3
F0.7507677989762679
sg4
I0
sg5
F0.0035542342021865694
sg6
I0
sg7
F0.34337720697840124
sg8
I00
sg9
F0.0
sg10
S'steven.elliott@enron.com'
p37
sg12
F0.0
sg13
F0.0
sg14
F0.0
sg15
F0.08345969477597338
sg16
F0.0
sg17
I0
sg18
I0
sg19
I12961
sg20
F0.0
sg21
F0.0
sg22
F0.04375
sg23
F0.0
sg24
F0.11435070223428584
sg25
F0.0
sg26
F0.13677024478756847
sg27
F0.2529560322521056
sg28
F0.15382656412822224
sg29
I211725
sg30
F0.14237479119832827
sg31
F0.5
sg32
F0.0038930318542353985
ssS'CORDES WILLIAM R'
p38
(dp39
g3
F0.6536993950674732
sg4
I764
sg5
F0.0
sg6
I0
sg7
F0.0
sg8
I00
sg9
F0.0
sg10
S'bill.cordes@enron.com'
p40
sg12
F0.01893939393939394
sg13
F0.0
sg14
F0.0
sg15
F0.0
sg16
F0.01050534323492121
sg17
I0
sg18
I12
sg19
I0
sg20
F0.06028531983433042
sg21
F0.0
sg22
F0.0
sg23
F0.0
sg24
F0.0
sg25
F0.0
sg26
F0.022018029761909728
sg27
F0.1722211972417199
sg28
F0.0
sg29
I0
sg30
F0.018977603138476615
sg31
F0.5
sg32
F0.0
ssS'HANNON KEVIN P'
p41
(dp42
g3
F0.8757561656584457
sg4
I1045
sg5
F0.0023896908723033032
sg6
I0
sg7
F0.1487959154233858
sg8
I01
sg9
F0.31426134316366705
sg10
S'kevin.hannon@enron.com'
p43
sg12
F0.06060606060606061
sg13
F0.12024873308595115
sg14
F0.0
sg15
F0.251312528533229
sg16
F0.187466038761094
sg17
I0
sg18
I32
sg19
I11350
sg20
F0.140819144040497
sg21
F0.0
sg22
F0.1875
sg23
F0.6563
sg24
F0.8894599510442058
sg25
F0.034482758620689655
sg26
F0.13091784215016056
sg27
F0.19909693459426664
sg28
F0.2189347568251477
sg29
I288682
sg30
F0.1612303216360921
sg31
F0.5
sg32
F0.0011852778159032256
ssS'MORDAUNT KRISTINA M'
p44
(dp45
g3
F0.0693345742205677
sg4
I0
sg5
F7.102027728528641e-05
sg6
I0
sg7
F0.15307545363542183
sg8
I00
sg9
F0.0
sg10
S'kristina.mordaunt@enron.com'
p46
sg12
F0.0
sg13
F0.0
sg14
F0.0
sg15
F0.04959890432400705
sg16
F0.0
sg17
I0
sg18
I0
sg19
I1411
sg20
F0.0
sg21
F0.0
sg22
F0.040625
sg23
F0.0
sg24
F0.0
sg25
F0.0
sg26
F0.005138994206615752
sg27
F0.16198146927384854
sg28
F0.24035192547545214
sg29
I628522
sg30
F0.0
sg31
F0.5
sg32
F0.001110721384309599
ssS'MEYER ROCKFORD G'
p47
(dp48
g3
F0.5498371335504886
sg4
I232
sg5
F0.0
sg6
I1848227
sg7
F0.0
sg8
I00
sg9
F0.0
sg10
S'rockford.meyer@enron.com'
p49
sg12
F0.0
sg13
F0.0
sg14
F0.0
sg15
F0.0
sg16
F0.003984785364970114
sg17
I0
sg18
I28
sg19
I0
sg20
F0.0
sg21
F0.0
sg22
F0.0
sg23
F0.0
sg24
F0.0
sg25
F0.0
sg26
F0.020343461798999724
sg27
F0.17660034006319408
sg28
F0.0
sg29
I1848227
sg30
F0.014367167899369006
sg31
F1.0
sg32
F0.0
ssS'MCMAHON JEFFREY'
p50
(dp51
g3
F0.6872964169381107
sg4
I2355
sg5
F0.00040834612614089116
sg6
I0
sg7
F0.599345173826187
sg8
I00
sg9
F0.13504439081329195
sg10
S'jeffrey.mcmahon@enron.com'
p52
sg12
F0.10984848484848485
sg13
F0.03393574696818105
sg14
F0.0
sg15
F0.286086382312659
sg16
F0.40355008150697336
sg17
I0
sg18
I48
sg19
I297353
sg20
F0.11320754716981132
sg21
F0.0
sg22
F0.325
sg23
F0.5417
sg24
F0.0
sg25
F0.04269293924466338
sg26
F0.03472641212889136
sg27
F0.1821523369785786
sg28
F0.3333591299230242
sg29
I4099771
sg30
F0.03214282220671575
sg31
F0.5
sg32
F0.003135606287818326
ssS'HORTON STANLEY C'
p53
(dp54
g3
F0.7375523499302
sg4
I2350
sg5
F0.0
sg6
I3131860
sg7
F0.0
sg8
I00
sg9
F0.0
sg10
S'stanley.horton@enron.com'
p55
sg12
F0.08333333333333334
sg13
F0.0
sg14
F0.0
sg15
F0.0
sg16
F0.19452997645354103
sg17
I0
sg18
I1073
sg19
I0
sg20
F0.08605614358030374
sg21
F0.0
sg22
F0.0
sg23
F0.014
sg24
F0.0
sg25
F0.02463054187192118
sg26
F0.1485273955693404
sg27
F0.26779452526818787
sg28
F0.0
sg29
I3131860
sg30
F0.15169764609595607
sg31
F1.0
sg32
F0.0
ssS'PIPER GREGORY F'
p56
(dp57
g3
F0.9999999999999999
sg4
I1238
sg5
F0.00040630839819009003
sg6
I1130036
sg7
F0.18821662594038374
sg8
I00
sg9
F0.0
sg10
S'greg.piper@enron.com'
p58
sg12
F0.11553030303030304
sg13
F0.0
sg14
F-409554.0
sg15
F0.08272598317354725
sg16
F0.13439594276399203
sg17
I0
sg18
I222
sg19
I778
sg20
F0.22687528762080073
sg21
F0.0
sg22
F0.049999999999999996
sg23
F0.2162
sg24
F0.009511794648192294
sg25
F0.07881773399014778
sg26
F0.01880578964499269
sg27
F0.17355822096552703
sg28
F0.1773584532124853
sg29
I1737629
sg30
F0.025628279921407655
sg31
F0.82515
sg32
F0.0018512023071826649
ssS'HUMPHREY GENE E'
p59
(dp60
g3
F0.9999999999999999
sg4
I128
sg5
F0.0015885635866457206
sg6
I2964506
sg7
F0.021830453351284956
sg8
I00
sg9
F0.0
sg10
S'gene.humphrey@enron.com'
p61
sg12
F0.01893939393939394
sg13
F0.0
sg14
F0.0
sg15
F0.0
sg16
F0.021554066292338345
sg17
I0
sg18
I17
sg19
I0
sg20
F0.35941095260009204
sg21
F0.0
sg22
F0.0
sg23
F1.0
sg24
F0.0
sg25
F0.027914614121510674
sg26
F0.04733801735767246
sg27
F0.1499748016029313
sg28
F0.1176360485143864
sg29
I3100224
sg30
F0.0664592546770177
sg31
F0.9781
sg32
F0.00032364269169051624
ssS'UMANOFF ADAM S'
p62
(dp63
g3
F0.0693345742205677
sg4
I111
sg5
F0.0
sg6
I0
sg7
F0.23221412553603513
sg8
I00
sg9
F0.0
sg10
S'adam.umanoff@enron.com'
p64
sg12
F0.022727272727272728
sg13
F0.0
sg14
F0.0
sg15
F0.11140595447727124
sg16
F0.007426190907444304
sg17
I0
sg18
I18
sg19
I0
sg20
F0.49746893695352046
sg21
F0.0
sg22
F0.09859375
sg23
F0.0
sg24
F0.0
sg25
F0.0
sg26
F0.0008970347602851445
sg27
F0.1499748016029313
sg28
F0.2596957682194414
sg29
I1130461
sg30
F0.0
sg31
F0.5
sg32
F0.0015597544382257604
ssS'BLACHMAN JEREMY M'
p65
(dp66
g3
F0.8156351791530944
sg4
I2475
sg5
F0.00034929750056656117
sg6
I0
sg7
F0.3681014849429322
sg8
I00
sg9
F0.16165963842894499
sg10
S'jeremy.blachman@enron.com'
p67
sg12
F0.04734848484848485
sg13
F0.06054953584177189
sg14
F0.0
sg15
F0.13940112828539752
sg16
F0.42130048904184025
sg17
I0
sg18
I14
sg19
I272
sg20
F0.046479521398987575
sg21
F0.0
sg22
F0.10625
sg23
F0.1429
sg24
F0.0
sg25
F0.003284072249589491
sg26
F0.02031255902983289
sg27
F0.16086038245362366
sg28
F0.22366183190582203
sg29
I2014835
sg30
F0.022280902647414214
sg31
F0.5
sg32
F0.0028704226163546306
ssS'SUNDE MARTIN'
p68
(dp69
g3
F0.0693345742205677
sg4
I2647
sg5
F0.0002469289620381471
sg6
I0
sg7
F0.0
sg8
I00
sg9
F0.09259685383196053
sg10
S'marty.sunde@enron.com'
p70
sg12
F0.07007575757575758
sg13
F0.033478011510328
sg14
F0.0
sg15
F0.11081490901976129
sg16
F0.46458974823401555
sg17
I0
sg18
I38
sg19
I111122
sg20
F0.06442705936493327
sg21
F0.0
sg22
F0.0875
sg23
F0.3421
sg24
F0.0
sg25
F0.02134646962233169
sg26
F0.015115970524658021
sg27
F0.19022083377672377
sg28
F0.2317067683652221
sg29
I1545059
sg30
F0.0
sg31
F0.5
sg32
F0.0
ssS'GIBBS DANA R'
p71
(dp72
g3
F0.9999999999999999
sg4
I169
sg5
F0.0
sg6
I504610
sg7
F0.0
sg8
I00
sg9
F0.08977124184276779
sg10
S'dana.gibbs@enron.com'
p73
sg12
F0.0
sg13
F0.0
sg14
F0.0
sg15
F0.0
sg16
F0.004165911972468755
sg17
I0
sg18
I12
sg19
I0
sg20
F0.0
sg21
F0.0
sg22
F0.0
sg23
F0.0
sg24
F0.0
sg25
F0.0
sg26
F0.04602596186598285
sg27
F0.1499748016029313
sg28
F0.0
sg29
I966522
sg30
F0.06458164087137258
sg31
F0.76105
sg32
F0.0
ssS'LOWRY CHARLES P'
p74
(dp75
g3
F0.9999999999999999
sg4
I0
sg5
F0.0
sg6
I0
sg7
F0.0
sg8
I00
sg9
F0.0
sg10
I0
sg12
F0.0
sg13
F0.0
sg14
F-153686.0
sg15
F0.0
sg16
F0.0
sg17
I0
sg18
I0
sg19
I0
sg20
F0.0
sg21
F0.0
sg22
F0.0
sg23
F0.0
sg24
F0.0
sg25
F0.0
sg26
F0.008469230413834057
sg27
F0.15882452932665
sg28
F0.0
sg29
I0
sg30
F0.010836172088911081
sg31
F0.5
sg32
F0.0
ssS'COLWELL WESLEY'
p76
(dp77
g3
F0.0693345742205677
sg4
I1758
sg5
F0.00022013829768498095
sg6
I27610
sg7
F0.07218824722529431
sg8
I01
sg9
F0.0
sg10
S'wes.colwell@enron.com'
p78
sg12
F0.4545454545454546
sg13
F0.0
sg14
F0.0
sg15
F0.16951998956499056
sg16
F0.20503531968846223
sg17
I0
sg18
I40
sg19
I101740
sg20
F0.6281638288080994
sg21
F0.0
sg22
F0.15
sg23
F0.275
sg24
F0.04110905590879544
sg25
F0.0180623973727422
sg26
F0.015102177188584873
sg27
F0.1901817923845561
sg28
F0.2596534738107622
sg29
I1490344
sg30
F0.0
sg31
F0.50925
sg32
F0.00048461680535857404
ssS'MULLER MARK S'
p79
(dp80
g3
F0.7631456491391344
sg4
I136
sg5
F0.000512170184634163
sg6
I842924
sg7
F0.0
sg8
I00
sg9
F0.33535460759966995
sg10
S's..muller@enron.com'
p81
sg12
F0.022727272727272728
sg13
F0.12405535523347222
sg14
F0.0
sg15
F0.17817371029804996
sg16
F0.020648433254845135
sg17
I0
sg18
I16
sg19
I947
sg20
F0.4058904739990796
sg21
F0.0
sg22
F0.13749999999999998
sg23
F0.0
sg24
F0.20517146227613056
sg25
F0.0
sg26
F0.029721607958763052
sg27
F0.17073514826285383
sg28
F0.2264586621648618
sg29
I3202070
sg30
F0.030753120729056713
sg31
F0.6315999999999999
sg32
F0.0
ssS'JACKSON CHARLENE R'
p82
(dp83
g3
F0.3066542577943229
sg4
I258
sg5
F0.00022878954447610526
sg6
I0
sg7
F0.04450457460341052
sg8
I00
sg9
F0.0
sg10
S'charlene.jackson@enron.com'
p84
sg12
F0.04734848484848485
sg13
F0.0
sg14
F0.0
sg15
F0.03531598513011152
sg16
F0.02119181307734106
sg17
I0
sg18
I56
sg19
I2435
sg20
F0.44592728946157384
sg21
F0.0
sg22
F0.03125
sg23
F0.3393
sg24
F0.0
sg25
F0.031198686371100164
sg26
F0.015661499000766386
sg27
F0.18110841161190047
sg28
F0.25966787190733387
sg29
I551174
sg30
F0.005387822611974991
sg31
F0.5
sg32
F0.0002990729585517074
ssS'WESTFAHL RICHARD K'
p85
(dp86
g3
F0.0693345742205677
sg4
I0
sg5
F0.0005493405257367223
sg6
I0
sg7
F0.22674121252125565
sg8
I00
sg9
F0.04978996912602514
sg10
S'dick.westfahl@enron.com'
p87
sg12
F0.0
sg13
F0.07271480548052273
sg14
F0.0
sg15
F0.0
sg16
F0.0
sg17
I0
sg18
I0
sg19
I401130
sg20
F0.0
sg21
F0.0
sg22
F0.0
sg23
F0.0
sg24
F0.0030818522845371486
sg25
F0.0
sg26
F0.008728109767124341
sg27
F0.1721402928818444
sg28
F0.05736201674138679
sg29
I762135
sg30
F0.0
sg31
F0.5
sg32
F0.006893928225878876
ssS'WALTERS GARETH W'
p88
(dp89
g3
F0.9999999999999999
sg4
I0
sg5
F0.0
sg6
I53625
sg7
F0.14768559600984427
sg8
I00
sg9
F0.0
sg10
I0
sg12
F0.0
sg13
F0.0
sg14
F0.0
sg15
F0.0
sg16
F0.0
sg17
I0
sg18
I0
sg19
I0
sg20
F0.0
sg21
F0.0
sg22
F0.0
sg23
F0.0
sg24
F0.0
sg25
F0.0
sg26
F0.02185820609201201
sg27
F0.1499748016029313
sg28
F0.0
sg29
I87410
sg30
F0.02999643301996391
sg31
F0.8067500000000001
sg32
F0.0
ssS'WALLS JR ROBERT H'
p90
(dp91
g3
F0.7550488599348534
sg4
I671
sg5
F0.0015027879757166871
sg6
I0
sg7
F0.22265838444153996
sg8
I00
sg9
F0.10509337016080665
sg10
S'rob.walls@enron.com'
p92
sg12
F0.032196969696969696
sg13
F0.027397185922011288
sg14
F0.0
sg15
F0.09702520706971891
sg16
F0.03894222061220793
sg17
I0
sg18
I146
sg19
I2
sg20
F0.11642890013805798
sg21
F0.0
sg22
F0.10625
sg23
F0.0
sg24
F0.0
sg25
F0.0
sg26
F0.12090713522561494
sg27
F0.23936997327680049
sg28
F0.3213394189288176
sg29
I1798780
sg30
F0.1265428964576616
sg31
F0.5
sg32
F0.0012081530846876339
ssS'KITCHEN LOUISE'
p93
(dp94
g3
F0.20716612377850163
sg4
I8305
sg5
F0.00018336822457275758
sg6
I0
sg7
F0.025240095644837673
sg8
I00
sg9
F0.0
sg10
S'louise.kitchen@enron.com'
p95
sg12
F0.4753787878787879
sg13
F0.0
sg14
F0.0
sg15
F0.46551963086154047
sg16
F0.6645535229125158
sg17
I0
sg18
I1728
sg19
I93925
sg20
F0.13897837091578463
sg21
F0.0
sg22
F0.38749999999999996
sg23
F0.1123
sg24
F0.0
sg25
F0.3185550082101806
sg26
F0.012028195938855322
sg27
F0.17681437672202482
sg28
F0.2442655080998292
sg29
I3471141
sg30
F0.002359412308887661
sg31
F0.5
sg32
F0.0001804604537436648
ssS'CHAN RONNIE'
p96
(dp97
g3
F0.0693345742205677
sg4
I0
sg5
F0.0
sg6
I0
sg7
F0.0
sg8
I00
sg9
F0.0
sg10
I0
sg12
F0.0
sg13
F0.0
sg14
F-32460.0
sg15
F0.0
sg16
F0.0
sg17
I0
sg18
I0
sg19
I0
sg20
F0.0
sg21
F98784.0
sg22
F0.0
sg23
F0.0
sg24
F0.028188675562566455
sg25
F0.0
sg26
F0.0008970347602851445
sg27
F0.15184395144033946
sg28
F0.0
sg29
I0
sg30
F0.0
sg31
F0.5
sg32
F0.0
ssS'BELFER ROBERT'
p98
(dp99
g3
F0.0
sg4
I0
sg5
F0.0
sg6
I-102500
sg7
F0.0
sg8
I00
sg9
F0.0
sg10
I0
sg12
F0.0
sg13
F0.0
sg14
F44093.0
sg15
F0.0
sg16
F0.0
sg17
I0
sg18
I0
sg19
I0
sg20
F0.0
sg21
F3285.0
sg22
F0.0
sg23
F0.0
sg24
F0.0
sg25
F0.0
sg26
F0.0
sg27
F0.1499748016029313
sg28
F0.0
sg29
I102500
sg30
F9.56376870597464e-05
sg31
F0.0
sg32
F0.0
ssS'SHANKMAN JEFFREY A'
p100
(dp101
g3
F0.7169846440204745
sg4
I3221
sg5
F0.000619814983035187
sg6
I0
sg7
F0.7823773949458611
sg8
I00
sg9
F0.10775028889691327
sg10
S'jeffrey.shankman@enron.com'
p102
sg12
F0.17803030303030304
sg13
F0.03298409143130078
sg14
F0.0
sg15
F0.2680737624730972
sg16
F0.3133490309726499
sg17
I0
sg18
I2681
sg19
I1191
sg20
F0.13437643810400368
sg21
F0.0
sg22
F0.25
sg23
F0.031
sg24
F0.0
sg25
F0.13628899835796388
sg26
F0.043050832858110864
sg27
F0.1862600902996306
sg28
F0.2736628217749613
sg29
I3038702
sg30
F0.041978627000327
sg31
F0.5
sg32
F0.004985961362823791
ssS'WODRASKA JOHN'
p103
(dp104
g3
F0.0693345742205677
sg4
I0
sg5
F0.0
sg6
I0
sg7
F0.0
sg8
I00
sg9
F0.0
sg10
S'john.wodraska@enron.com'
p105
sg12
F0.0
sg13
F0.0
sg14
F0.0
sg15
F0.0
sg16
F0.0
sg17
I0
sg18
I0
sg19
I189583
sg20
F0.0
sg21
F0.0
sg22
F0.0
sg23
F0.0
sg24
F0.0
sg25
F0.0
sg26
F0.0008970347602851445
sg27
F0.1499748016029313
sg28
F0.0
sg29
I189583
sg30
F0.0
sg31
F0.5
sg32
F0.0
ssS'BERGSIEKER RICHARD P'
p106
(dp107
g3
F0.0693345742205677
sg4
I383
sg5
F0.00031913184929488063
sg6
I0
sg7
F0.258673824001259
sg8
I00
sg9
F0.0350310586045803
sg10
S'rick.bergsieker@enron.com'
p108
sg12
F0.007575757575757576
sg13
F0.01735414431512463
sg14
F0.0
sg15
F0.054225363594860757
sg16
F0.042202499547183484
sg17
I0
sg18
I59
sg19
I427316
sg20
F0.04786010124252186
sg21
F0.0
sg22
F0.03125
sg23
F0.0
sg24
F0.13862999110257831
sg25
F0.0
sg26
F0.014308897611150843
sg27
F0.1879364516695205
sg28
F0.16910744399590374
sg29
I618850
sg30
F0.0
sg31
F0.5
sg32
F0.0026679341260037585
ssS'URQUHART JOHN A'
p109
(dp110
g3
F0.0693345742205677
sg4
I0
sg5
F0.0
sg6
I0
sg7
F0.999532267018705
sg8
I00
sg9
F0.0
sg10
I0
sg12
F0.0
sg13
F0.0
sg14
F0.0
sg15
F0.0
sg16
F0.0
sg17
I0
sg18
I0
sg19
I0
sg20
F0.0
sg21
F36666.0
sg22
F0.0
sg23
F0.0
sg24
F0.01046288850600362
sg25
F0.0
sg26
F0.0008970347602851445
sg27
F0.1499748016029313
sg28
F0.0
sg29
I228656
sg30
F0.0
sg31
F0.5
sg32
F0.0
ssS'BIBI PHILIPPE A'
p111
(dp112
g3
F0.8091205211726384
sg4
I1607
sg5
F0.0007851711480428278
sg6
I0
sg7
F0.1685543553808964
sg8
I00
sg9
F0.07185419150260212
sg10
S'philippe.bibi@enron.com'
p113
sg12
F0.043560606060606064
sg13
F0.03131236193305483
sg14
F0.0
sg15
F0.19080985456205568
sg16
F0.2419851476181851
sg17
I0
sg18
I40
sg19
I425688
sg20
F0.06580763920846755
sg21
F0.0
sg22
F0.125
sg23
F0.2
sg24
F0.0
sg25
F0.013136288998357963
sg26
F0.038407910490444445
sg27
F0.17174596330431602
sg28
F0.1922370862571968
sg29
I2047593
sg30
F0.04267257522217057
sg31
F0.5
sg32
F0.0015292540798465492
ssS'PIRO JIM'
p114
(dp115
g3
F0.0693345742205677
sg4
I58
sg5
F0.0
sg6
I0
sg7
F0.0
sg8
I00
sg9
F0.0
sg10
S'jim.piro@enron.com'
p116
sg12
F0.0
sg13
F0.0
sg14
F0.0
sg15
F0.0
sg16
F0.0005433798224959246
sg17
I0
sg18
I16
sg19
I0
sg20
F0.0
sg21
F0.0
sg22
F0.0
sg23
F0.0625
sg24
F0.0
sg25
F0.0016420361247947454
sg26
F0.0018593945974594915
sg27
F0.15269871607947952
sg28
F0.0
sg29
I0
sg30
F0.0
sg31
F0.5
sg32
F0.0
ssS'RIEKER PAULA H'
p117
(dp118
g3
F0.8624476500697997
sg4
I1328
sg5
F0.0007004871770874376
sg6
I214678
sg7
F0.1454387291651185
sg8
I01
sg9
F0.0
sg10
S'paula.rieker@enron.com'
p119
sg12
F0.06628787878787878
sg13
F0.0
sg14
F0.0
sg15
F0.11449977173416814
sg16
F0.22785727223329108
sg17
I0
sg18
I82
sg19
I1950
sg20
F0.12149102623101703
sg21
F0.0
sg22
F0.0875
sg23
F0.5854
sg24
F0.028535669301269898
sg25
F0.07881773399014778
sg26
F0.03993516643785937
sg27
F0.16630821140672009
sg28
F0.22425125398422327
sg29
I1099100
sg30
F0.04760742164755116
sg31
F0.59765
sg32
F0.0011310549565624064
ssS'WHALEY DAVID A'
p120
(dp121
g3
F0.9999999999999999
sg4
I0
sg5
F0.0
sg6
I0
sg7
F0.0
sg8
I00
sg9
F0.0
sg10
I0
sg12
F0.0
sg13
F0.0
sg14
F0.0
sg15
F0.0
sg16
F0.0
sg17
I0
sg18
I0
sg19
I0
sg20
F0.0
sg21
F0.0
sg22
F0.0
sg23
F0.0
sg24
F0.0
sg25
F0.0
sg26
F0.002905368905519737
sg27
F0.1499748016029313
sg28
F0.0
sg29
I0
sg30
F0.002874021671587228
sg31
F0.5
sg32
F0.0
ssS'BECK SALLY W'
p122
(dp123
g3
F0.0693345742205677
sg4
I7315
sg5
F4.956045480341237e-05
sg6
I0
sg7
F0.16249131196915587
sg8
I00
sg9
F0.0
sg10
S'sally.beck@enron.com'
p124
sg12
F0.2727272727272727
sg13
F0.0
sg14
F0.0
sg15
F0.12334507271897215
sg16
F0.477993117188915
sg17
I0
sg18
I4343
sg19
I566
sg20
F0.09065807639208467
sg21
F0.0
sg22
F0.0875
sg23
F0.0889
sg24
F0.0
sg25
F0.6338259441707718
sg26
F0.00346094739345721
sg27
F0.15723183630900145
sg28
F0.2081694799947447
sg29
I969068
sg30
F0.0
sg31
F0.5
sg32
F0.001361502108760889
ssS'HAUG DAVID L'
p125
(dp126
g3
F0.0693345742205677
sg4
I573
sg5
F0.0
sg6
I0
sg7
F0.0020763847300481284
sg8
I00
sg9
F0.0
sg10
S'david.haug@enron.com'
p127
sg12
F0.007575757575757576
sg13
F0.0
sg14
F0.0
sg15
F0.0
sg16
F0.08531063213186017
sg17
I0
sg18
I19
sg19
I0
sg20
F0.032213529682466636
sg21
F0.0
sg22
F0.0
sg23
F0.3684
sg24
F0.0
sg25
F0.011494252873563218
sg26
F0.04600610597216664
sg27
F0.277653916369883
sg28
F0.0
sg29
I475
sg30
F0.0
sg31
F0.5
sg32
F0.0
ssS'ECHOLS JOHN B'
p128
(dp129
g3
F0.6241042345276872
sg4
I0
sg5
F0.0005036281018404031
sg6
I0
sg7
F0.09411486997460254
sg8
I00
sg9
F0.4343217695533555
sg10
S'john.echols@enron.com'
p130
sg12
F0.0
sg13
F0.22185695857403645
sg14
F0.0
sg15
F0.044731950694580316
sg16
F0.0
sg17
I0
sg18
I0
sg19
I53775
sg20
F0.0
sg21
F0.0
sg22
F0.024999999999999998
sg23
F0.0
sg24
F0.0
sg25
F0.0
sg26
F0.02142308533694933
sg27
F0.17344011787506108
sg28
F0.16399881935608113
sg29
I2692324
sg30
F0.017509935838611795
sg31
F0.5
sg32
F0.0010005812012735594
ssS'MENDELSOHN JOHN'
p131
(dp132
g3
F0.0693345742205677
sg4
I0
sg5
F0.0
sg6
I0
sg7
F0.000646957768520259
sg8
I00
sg9
F0.0
sg10
I0
sg12
F0.0
sg13
F0.0
sg14
F0.0
sg15
F0.0
sg16
F0.0
sg17
I0
sg18
I0
sg19
I0
sg20
F0.0
sg21
F103750.0
sg22
F0.0
sg23
F0.0
sg24
F0.029605756900067517
sg25
F0.0
sg26
F0.0008970347602851445
sg27
F0.1499748016029313
sg28
F0.0
sg29
I148
sg30
F0.0
sg31
F0.5
sg32
F0.0
ssS'HICKERSON GARY J'
p133
(dp134
g3
F0.0693345742205677
sg4
I1320
sg5
F0.00018946321442560014
sg6
I0
sg7
F0.43210221932742626
sg8
I00
sg9
F0.013453286933619206
sg10
S'gary.hickerson@enron.com'
p135
sg12
F0.07575757575757576
sg13
F0.005914376330915599
sg14
F0.0
sg15
F0.3271905367507989
sg16
F0.1630139467487774
sg17
I0
sg18
I27
sg19
I1936
sg20
F0.1394385641969627
sg21
F0.0
sg22
F0.2125
sg23
F0.037
sg24
F0.0
sg25
F0.0016420361247947454
sg26
F0.009870759492617627
sg27
F0.17537450944893823
sg28
F0.19058400479456616
sg29
I2081796
sg30
F0.0
sg31
F0.5
sg32
F0.0039540325709938205
ssS'CLINE KENNETH W'
p136
(dp137
g3
F0.0693345742205677
sg4
I0
sg5
F0.0
sg6
I0
sg7
F0.0
sg8
I00
sg9
F0.0
sg10
I0
sg12
F0.0
sg13
F0.0
sg14
F-472568.0
sg15
F0.0
sg16
F0.0
sg17
I0
sg18
I0
sg19
I0
sg20
F0.0
sg21
F0.0
sg22
F0.0
sg23
F0.0
sg24
F0.0
sg25
F0.0
sg26
F0.004752618043339598
sg27
F0.18809981513497726
sg28
F0.0
sg29
I0
sg30
F0.0
sg31
F0.5
sg32
F0.0
ssS'LEWIS RICHARD'
p138
(dp139
g3
F0.9999999999999999
sg4
I952
sg5
F0.0
sg6
I0
sg7
F0.0
sg8
I00
sg9
F0.0
sg10
S'richard.lewis@enron.com'
p140
sg12
F0.01893939393939394
sg13
F0.0
sg14
F0.0
sg15
F0.0
sg16
F0.1338525629414961
sg17
I0
sg18
I26
sg19
I0
sg20
F0.04832029452369996
sg21
F0.0
sg22
F0.0
sg23
F0.0
sg24
F0.0
sg25
F0.0
sg26
F0.01819926939669067
sg27
F0.1499748016029313
sg28
F0.0
sg29
I0
sg30
F0.024760320601982324
sg31
F0.5
sg32
F0.0
ssS'HAYES ROBERT E'
p141
(dp142
g3
F0.0693345742205677
sg4
I504
sg5
F0.0
sg6
I7961
sg7
F0.0
sg8
I00
sg9
F0.0
sg10
S'robert.hayes@enron.com'
p143
sg12
F0.030303030303030304
sg13
F0.0
sg14
F0.0
sg15
F0.0
sg16
F0.009056330374932078
sg17
I0
sg18
I12
sg19
I0
sg20
F0.14588127013345603
sg21
F0.0
sg22
F0.0
sg23
F0.0
sg24
F0.0
sg25
F0.0
sg26
F0.003977505794981264
sg27
F0.15869393068736345
sg28
F0.0
sg29
I7961
sg30
F0.0
sg31
F1.0
sg32
F0.0
ssS'KOPPER MICHAEL J'
p144
(dp145
g3
F0.0693345742205677
sg4
I0
sg5
F0.0003994947453545988
sg6
I0
sg7
F0.5164034393673802
sg8
I01
sg9
F0.11712734047312628
sg10
S'michael.kopper@enron.com'
p146
sg12
F0.0
sg13
F0.04861042008535952
sg14
F0.0
sg15
F0.14538087784517056
sg16
F0.0
sg17
I0
sg18
I0
sg19
I907502
sg20
F0.0
sg21
F0.0
sg22
F0.09999999999999999
sg23
F0.0
sg24
F0.0
sg25
F0.0
sg26
F0.0209366769709126
sg27
F0.2066960709387854
sg28
F0.20184781571876198
sg29
I2652612
sg30
F0.0
sg31
F0.5
sg32
F0.004462371877314002
ssS'LEFF DANIEL P'
p147
(dp148
g3
F0.0693345742205677
sg4
I2822
sg5
F0.00011980748710736802
sg6
I0
sg7
F0.0
sg8
I00
sg9
F0.2696369246986746
sg10
S'dan.leff@enron.com'
p149
sg12
F0.1268939393939394
sg13
F0.09169544851742562
sg14
F0.0
sg15
F0.148902693536816
sg16
F0.4839702952363702
sg17
I0
sg18
I63
sg19
I3083
sg20
F0.10906580763920846
sg21
F0.0
sg22
F0.125
sg23
F0.2222
sg24
F0.0
sg25
F0.022988505747126436
sg26
F0.008231671733412004
sg27
F0.17073514826285383
sg28
F0.24633883400614437
sg29
I2664228
sg30
F0.0
sg31
F0.5
sg32
F0.0
ssS'LAVORATO JOHN J'
p150
(dp151
g3
F0.8184271754304326
sg4
I7259
sg5
F0.001385418484550456
sg6
I0
sg7
F0.216542884994514
sg8
I00
sg9
F0.3955701307217234
sg10
S'john.lavorato@enron.com'
p152
sg12
F1.0
sg13
F0.10853577121187724
sg14
F0.0
sg15
F0.9611132850714146
sg16
F0.7176236189096178
sg17
I0
sg18
I2585
sg19
I1552
sg20
F0.3345605154164749
sg21
F0.0
sg22
F1.0
sg23
F0.159
sg24
F0.0
sg25
F0.6748768472906403
sg26
F0.10601820545401935
sg27
F0.2080272211788151
sg28
F0.30531883684976846
sg29
I10425757
sg30
F0.12108269780610348
sg31
F0.5
sg32
F0.0012369589787124442
ssS'BERBERIAN DAVID'
p153
(dp154
g3
F0.6755700325732898
sg4
I0
sg5
F0.0010473830697119832
sg6
I0
sg7
F0.05198393096785757
sg8
I00
sg9
F0.0
sg10
S'david.berberian@enron.com'
p155
sg12
F0.0
sg13
F0.0
sg14
F0.0
sg15
F0.0
sg16
F0.0
sg17
I0
sg18
I0
sg19
I0
sg20
F0.0
sg21
F0.0
sg22
F0.0
sg23
F0.0
sg24
F0.0
sg25
F0.0
sg26
F0.05162754143488658
sg27
F0.20002724835807337
sg28
F0.19489803447984175
sg29
I228474
sg30
F0.04729177361007726
sg31
F0.5
sg32
F0.000465130465282967
ssS'DETMERING TIMOTHY J'
p156
(dp157
g3
F0.9999999999999999
sg4
I0
sg5
F0.0008763685708409572
sg6
I875307
sg7
F0.22842417698666306
sg8
I00
sg9
F0.08078171831569504
sg10
S'timothy.detmering@enron.com'
p158
sg12
F0.0
sg13
F0.03572507648524301
sg14
F-315068.0
sg15
F0.08229798473879868
sg16
F0.0
sg17
I0
sg18
I0
sg19
I1105
sg20
F0.0
sg21
F0.0
sg22
F0.053125
sg23
F0.0
sg24
F0.22122020804785775
sg25
F0.0
sg26
F0.0421522315980062
sg27
F0.1681174171596938
sg28
F0.18942495802054968
sg29
I1204583
sg30
F0.05903814863604646
sg31
F0.8633
sg32
F0.002102830263811155
ssS'WAKEHAM JOHN'
p159
(dp160
g3
F0.0693345742205677
sg4
I0
sg5
F0.0
sg6
I0
sg7
F0.4536266791395462
sg8
I00
sg9
F0.0
sg10
I0
sg12
F0.0
sg13
F0.0
sg14
F0.0
sg15
F0.0
sg16
F0.0
sg17
I0
sg18
I0
sg19
I0
sg20
F0.0
sg21
F109298.0
sg22
F0.0
sg23
F0.0
sg24
F0.0
sg25
F0.0
sg26
F0.0008970347602851445
sg27
F0.1499748016029313
sg28
F0.0
sg29
I213071
sg30
F0.0
sg31
F0.5
sg32
F0.0
ssS'POWERS WILLIAM'
p161
(dp162
g3
F0.0693345742205677
sg4
I653
sg5
F0.0
sg6
I0
sg7
F0.0
sg8
I00
sg9
F0.0
sg10
S'ken.powers@enron.com'
p163
sg12
F0.0
sg13
F0.0
sg14
F0.0
sg15
F0.0
sg16
F0.0021735192899836986
sg17
I0
sg18
I26
sg19
I0
sg20
F0.0
sg21
F17500.0
sg22
F0.0
sg23
F0.0
sg24
F0.004993742127722232
sg25
F0.0
sg26
F0.0008970347602851445
sg27
F0.1499748016029313
sg28
F0.0
sg29
I0
sg30
F0.0
sg31
F0.5
sg32
F0.0
ssS'GOLD JOSEPH'
p164
(dp165
g3
F0.5322475570032573
sg4
I0
sg5
F0.0002925686099362235
sg6
I0
sg7
F0.0
sg8
I00
sg9
F0.05923795738124326
sg10
S'joe.gold@enron.com'
p166
sg12
F0.0
sg13
F0.020209110925765442
sg14
F0.0
sg15
F0.11203368551490249
sg16
F0.0
sg17
I0
sg18
I0
sg19
I819288
sg20
F0.0
sg21
F0.0
sg22
F0.09375
sg23
F0.0
sg24
F0.0
sg25
F0.0
sg26
F0.018751287657765604
sg27
F0.17537450944893823
sg28
F0.24555953702920474
sg29
I2146973
sg30
F0.01270845813299397
sg31
F0.5
sg32
F0.0
ssS'BANNANTINE JAMES M'
p167
(dp168
g3
F0.7875290832945555
sg4
I566
sg5
F1.0
sg6
I0
sg7
F0.24611060355039935
sg8
I00
sg9
F0.0
sg10
S'james.bannantine@enron.com'
p169
sg12
F0.07386363636363637
sg13
F0.0
sg14
F-560222.0
sg15
F0.0
sg16
F0.08422387248686831
sg17
I0
sg18
I29
sg19
I864523
sg20
F0.3170731707317073
sg21
F0.0
sg22
F0.0
sg23
F0.0
sg24
F0.0014564605611368155
sg25
F0.0
sg26
F0.10757133916468656
sg27
F0.2511802247402193
sg28
F0.0004292432540418157
sg29
I916197
sg30
F0.11779759420414072
sg31
F0.5
sg32
F1.0
ssS'DUNCAN JOHN H'
p170
(dp171
g3
F0.9999999999999999
sg4
I0
sg5
F0.0
sg6
I0
sg7
F0.0
sg8
I00
sg9
F0.0
sg10
I0
sg12
F0.0
sg13
F0.0
sg14
F0.0
sg15
F0.0
sg16
F0.0
sg17
I0
sg18
I0
sg19
I0
sg20
F0.0
sg21
F102492.0
sg22
F0.0
sg23
F0.0
sg24
F0.007133917325317474
sg25
F0.0
sg26
F0.008459973823991458
sg27
F0.1499748016029313
sg28
F0.0
sg29
I77492
sg30
F0.0108229254686334
sg31
F0.5
sg32
F0.0
ssS'SHAPIRO RICHARD S'
p172
(dp173
g3
F0.6424383434155421
sg4
I15149
sg5
F0.0003336870489434599
sg6
I0
sg7
F0.6022258844306116
sg8
I00
sg9
F0.0
sg10
S'richard.shapiro@enron.com'
p174
sg12
F0.14015151515151517
sg13
F0.0
sg14
F0.0
sg15
F0.09846817322115699
sg16
F0.8199601521463503
sg17
I0
sg18
I1215
sg19
I705
sg20
F0.022549470777726646
sg21
F0.0
sg22
F0.08125
sg23
F0.0535
sg24
F0.0
sg25
F0.10673234811165845
sg26
F0.020976734609154533
sg27
F0.17180826829889628
sg28
F0.24213638956929892
sg29
I1057548
sg30
F0.017696232812582972
sg31
F0.5
sg32
F0.004337828747265558
ssS'SHERRIFF JOHN R'
p175
(dp176
g3
F0.6152629129827826
sg4
I3187
sg5
F0.0006638444619721393
sg6
I0
sg7
F0.0
sg8
I00
sg9
F0.10775028889691327
sg10
S'john.sherriff@enron.com'
p177
sg12
F0.05303030303030303
sg13
F0.02339335758909106
sg14
F0.0
sg15
F0.14259684993152025
sg16
F0.38090925556964317
sg17
I0
sg18
I92
sg19
I1852186
sg20
F0.04049700874367235
sg21
F0.0
sg22
F0.1875
sg23
F0.25
sg24
F0.0
sg25
F0.03776683087027914
sg26
F0.06455352486770655
sg27
F0.22445426122399717
sg28
F0.385850990499056
sg29
I4335388
sg30
F0.05343942818387031
sg31
F0.5
sg32
F0.0
ssS'SHELBY REX'
p178
(dp179
g3
F0.6755700325732898
sg4
I225
sg5
F0.0010708078441464155
sg6
I0
sg7
F0.10003365928930816
sg8
I01
sg9
F0.0
sg10
S'rex.shelby@enron.com'
p180
sg12
F0.02462121212121212
sg13
F0.0
sg14
F0.0
sg15
F0.03848317354725103
sg16
F0.01648252128237638
sg17
I0
sg18
I39
sg19
I1573324
sg20
F0.2659917165209388
sg21
F0.0
sg22
F0.024999999999999998
sg23
F0.359
sg24
F0.0011890813397839165
sg25
F0.022988505747126436
sg26
F0.05162754143488658
sg27
F0.20002724835807337
sg28
F0.19063439813256686
sg29
I2003885
sg30
F0.04729177361007726
sg31
F0.5
sg32
F0.0009150107513763286
ssS'LEMAISTRE CHARLES'
p181
(dp182
g3
F0.9999999999999999
sg4
I0
sg5
F0.0
sg6
I0
sg7
F0.0
sg8
I00
sg9
F0.0
sg10
I0
sg12
F0.0
sg13
F0.0
sg14
F0.0
sg15
F0.0
sg16
F0.0
sg17
I0
sg18
I0
sg19
I0
sg20
F0.0
sg21
F112492.0
sg22
F0.0
sg23
F0.0
sg24
F0.007133917325317474
sg25
F0.0
sg26
F0.009296688169148455
sg27
F0.1499748016029313
sg28
F0.0
sg29
I87492
sg30
F0.012020303487931193
sg31
F0.5
sg32
F0.0
ssS'DEFFNER JOSEPH M'
p183
(dp184
g3
F0.1709632387156817
sg4
I714
sg5
F7.026522630351638e-05
sg6
I0
sg7
F0.18196124373259664
sg8
I00
sg9
F0.06517409415804382
sg10
S'joseph.deffner@enron.com'
p185
sg12
F0.2178030303030303
sg13
F0.02943618932517491
sg14
F0.0
sg15
F0.11865339463901388
sg16
F0.09998188733925013
sg17
I0
sg18
I74
sg19
I25553
sg20
F0.7413713759779107
sg21
F0.0
sg22
F0.075
sg23
F0.0541
sg24
F0.0
sg25
F0.006568144499178982
sg26
F0.004136047783208469
sg27
F0.15814199596180714
sg28
F0.1854843789651008
sg29
I1208649
sg30
F0.0005059335542539643
sg31
F0.5
sg32
F0.0017105617657674143
ssS'KISHKILL JOSEPH G'
p186
(dp187
g3
F0.0693345742205677
sg4
I0
sg5
F0.0005400070039620708
sg6
I0
sg7
F0.5085394054108401
sg8
I00
sg9
F0.0
sg10
S'joe.kishkill@enron.com'
p188
sg12
F0.0
sg13
F0.0
sg14
F0.0
sg15
F0.0
sg16
F0.0
sg17
I0
sg18
I0
sg19
I465357
sg20
F0.0
sg21
F0.0
sg22
F0.0
sg23
F0.0
sg24
F0.014565176324754181
sg25
F0.0
sg26
F0.021939928556622388
sg27
F0.2095357275956537
sg28
F0.15680067095130024
sg29
I704896
sg30
F0.0
sg31
F0.5
sg32
F0.005656122014989231
ssS'WHALLEY LAWRENCE G'
p189
(dp190
g3
F0.5718939041414611
sg4
I6019
sg5
F0.0010835800318380437
sg6
I0
sg7
F0.2528293474032077
sg8
I00
sg9
F0.15709967322484364
sg10
S'greg.whalley@enron.com'
p191
sg12
F0.3522727272727273
sg13
F0.028656410738871874
sg14
F0.0
sg15
F0.239605752298963
sg16
F0.7100163013946749
sg17
I0
sg18
I556
sg19
I301026
sg20
F0.1421997238840313
sg21
F0.0
sg22
F0.375
sg23
F0.0432
sg24
F0.0
sg25
F0.03940886699507389
sg26
F0.12457193103714434
sg27
F0.3109875491357226
sg28
F0.45926688491781387
sg29
I4677574
sg30
F0.09557829561938053
sg31
F0.5
sg32
F0.0009599140567679447
ssS'MCCARTY DANNY J'
p192
(dp193
g3
F0.8840390879478826
sg4
I1433
sg5
F0.0
sg6
I0
sg7
F0.0
sg8
I00
sg9
F0.0
sg10
S'danny.mccarty@enron.com'
p194
sg12
F0.04734848484848485
sg13
F0.0
sg14
F0.0
sg15
F0.0
sg16
F0.0920123166093099
sg17
I0
sg18
I215
sg19
I0
sg20
F0.0800736309249885
sg21
F0.0
sg22
F0.0
sg23
F0.0093
sg24
F0.0
sg25
F0.003284072249589491
sg26
F0.016336843520359644
sg27
F0.15541963623096472
sg28
F0.0
sg29
I0
sg30
F0.01934224911425236
sg31
F0.5
sg32
F0.0
ssS'MCCONNELL MICHAEL S'
p195
(dp196
g3
F0.5563517915309446
sg4
I3329
sg5
F0.0007728629073399979
sg6
I0
sg7
F0.3556694045802862
sg8
I00
sg9
F0.10775028889691327
sg10
S'mike.mcconnell@enron.com'
p197
sg12
F0.17424242424242425
sg13
F0.027478601319653136
sg14
F0.0
sg15
F0.12283147459727385
sg16
F0.39648614381452635
sg17
I0
sg18
I2742
sg19
I540
sg20
F0.12701334560515415
sg21
F0.0
sg22
F0.13749999999999998
sg23
F0.0708
sg24
F0.0
sg25
F0.3185550082101806
sg26
F0.06398993078328999
sg27
F0.23509822307537454
sg28
F0.3284907735197407
sg29
I2101364
sg30
F0.04725142236676986
sg31
F0.5
sg32
F0.0018884805229794782
ssS'DELAINEY DAVID W'
p198
(dp199
g3
F0.6592833876221498
sg4
I3093
sg5
F0.0009003937472608933
sg6
I0
sg7
F0.3766955320571946
sg8
I01
sg9
F0.2516757575745797
sg10
S'david.delainey@enron.com'
p200
sg12
F0.125
sg13
F0.06416076103495254
sg14
F0.0
sg15
F0.33487820387399725
sg16
F0.37982249592465134
sg17
I0
sg18
I3069
sg19
I1661
sg20
F0.0980211688909342
sg21
F0.0
sg22
F0.375
sg23
F0.1984
sg24
F0.0
sg25
F1.0
sg26
F0.07442611533413919
sg27
F0.22616586349655168
sg28
F0.3286032586492066
sg29
I4747979
sg30
F0.06670220642694573
sg31
F0.5
sg32
F0.001999467938192718
ssS'SULLIVAN-SHAKLOVITZ COLLEEN'
p201
(dp202
g3
F0.9999999999999999
sg4
I0
sg5
F0.0007613733966174007
sg6
I181993
sg7
F0.0
sg8
I00
sg9
F0.10775028889691327
sg10
I0
sg12
F0.0
sg13
F0.06162240985958558
sg14
F0.0
sg15
F0.025039946520576534
sg16
F0.0
sg17
I0
sg18
I0
sg19
I162
sg20
F0.0
sg21
F0.0
sg22
F0.012499999999999999
sg23
F0.0
sg24
F0.0
sg25
F0.0
sg26
F0.028613400885145638
sg27
F0.1499748016029313
sg28
F0.14648173511461784
sg29
I999356
sg30
F0.03966343802375098
sg31
F0.59105
sg32
F0.0
ssS'WROBEL BRUCE'
p203
(dp204
g3
F0.9999999999999999
sg4
I0
sg5
F0.0
sg6
I0
sg7
F0.0
sg8
I00
sg9
F0.0
sg10
I0
sg12
F0.0
sg13
F0.0
sg14
F0.0
sg15
F0.0
sg16
F0.0
sg17
I0
sg18
I0
sg19
I0
sg20
F0.0
sg21
F0.0
sg22
F0.0
sg23
F0.0
sg24
F0.0
sg25
F0.0
sg26
F0.0037275168367705766
sg27
F0.1499748016029313
sg28
F0.0
sg29
I0
sg30
F0.004050554459854647
sg31
F0.5
sg32
F0.0
ssS'LINDHOLM TOD A'
p205
(dp206
g3
F0.8436482084690552
sg4
I0
sg5
F0.0011788620075375556
sg6
I204075
sg7
F0.2523441290768175
sg8
I00
sg9
F0.03401073650930126
sg10
S'tod.lindholm@enron.com'
p207
sg12
F0.0
sg13
F0.013390119065495974
sg14
F0.0
sg15
F0.034476292962890495
sg16
F0.0
sg17
I0
sg18
I0
sg19
I2630
sg20
F0.0
sg21
F0.0
sg22
F0.024999999999999998
sg23
F0.0
sg24
F0.0
sg25
F0.0
sg26
F0.06323575266888337
sg27
F0.1796213261358972
sg28
F0.21278317006491743
sg29
I875889
sg30
F0.0742206969620463
sg31
F0.6165
sg32
F0.0020680937445459427
ssS'MEYER JEROME J'
p208
(dp209
g3
F0.0693345742205677
sg4
I0
sg5
F0.0
sg6
I0
sg7
F0.009402744324912683
sg8
I00
sg9
F0.0
sg10
I0
sg12
F0.0
sg13
F0.0
sg14
F0.0
sg15
F0.0
sg16
F0.0
sg17
I0
sg18
I0
sg19
I0
sg20
F0.0
sg21
F38346.0
sg22
F0.0
sg23
F0.0
sg24
F0.010942287750264955
sg25
F0.0
sg26
F0.0008970347602851445
sg27
F0.1499748016029313
sg28
F0.0
sg29
I2151
sg30
F0.0
sg31
F0.5
sg32
F0.0
ssS'LAY KENNETH L'
p210
(dp211
g3
F0.7202419730107026
sg4
I4273
sg5
F0.004166234862410426
sg6
I202911
sg7
F0.4363992428845574
sg8
I01
sg9
F0.6996494367627687
sg10
S'kenneth.lay@enron.com'
p212
sg12
F0.23295454545454547
sg13
F0.06073950510293621
sg14
F0.0
sg15
F0.2660886649709776
sg16
F0.4366962506792248
sg17
I81525000
sg18
I36
sg19
I10359729
sg20
F0.13253566497929128
sg21
F0.0
sg22
F0.875
sg23
F0.4444
sg24
F0.08560700790380969
sg25
F0.026272577996715927
sg26
F1.0
sg27
F1.0
sg28
F0.9649613321118948
sg29
I103559793
sg30
F1.0
sg31
F0.501
sg32
F0.0007887731569734832
ssS'BUTTS ROBERT H'
p213
(dp214
g3
F0.0693345742205677
sg4
I0
sg5
F0.00014526998949260136
sg6
I0
sg7
F0.04113427433632187
sg8
I00
sg9
F0.03401073650930126
sg10
S'bob.butts@enron.com'
p215
sg12
F0.0
sg13
F0.012107374244872187
sg14
F0.0
sg15
F0.11690063914432923
sg16
F0.0
sg17
I0
sg18
I0
sg19
I150656
sg20
F0.0
sg21
F0.0
sg22
F0.09375
sg23
F0.0
sg24
F0.021401751975952423
sg25
F0.0
sg26
F0.00939313980089299
sg27
F0.17402262926616463
sg28
F0.23533328893920225
sg29
I1271582
sg30
F0.0
sg31
F0.5
sg32
F0.0003050035837921095
ssS'OLSON CINDY K'
p216
(dp217
g3
F0.6537924616100511
sg4
I1184
sg5
F0.0007206097406015984
sg6
I77716
sg7
F0.278851912241053
sg8
I00
sg9
F0.019434706576743576
sg10
S'cindy.olson@enron.com'
p218
sg12
F0.03787878787878788
sg13
F0.005498253187412818
sg14
F0.0
sg15
F0.0929001173938564
sg16
F0.15504437601883717
sg17
I0
sg18
I52
sg19
I972
sg20
F0.077772664519098
sg21
F0.0
sg22
F0.09375
sg23
F0.2885
sg24
F0.0
sg25
F0.02463054187192118
sg26
F0.053929421370975825
sg27
F0.20581487562264686
sg28
F0.296131051474995
sg29
I1321557
sg30
F0.047659709405834055
sg31
F0.5294
sg32
F0.0016419359594141898
ssS'MCDONALD REBECCA'
p219
(dp220
g3
F0.4859934853420195
sg4
I894
sg5
F0.0
sg6
I0
sg7
F0.0
sg8
I00
sg9
F0.0
sg10
S'rebecca.mcdonald@enron.com'
p221
sg12
F0.10227272727272728
sg13
F0.0
sg14
F0.0
sg15
F0.0
sg16
F0.13041115739902193
sg17
I0
sg18
I13
sg19
I0
sg20
F0.27795674183156927
sg21
F0.0
sg22
F0.0
sg23
F0.0769
sg24
F0.0
sg25
F0.0016420361247947454
sg26
F0.035306444289336096
sg27
F0.20376122929481802
sg28
F0.0
sg29
I0
sg30
F0.022047645676722374
sg31
F0.5
sg32
F0.0
ssS'CUMBERLAND MICHAEL S'
p222
(dp223
g3
F0.0693345742205677
sg4
I0
sg5
F0.00010230485952995147
sg6
I0
sg7
F0.09767313770146396
sg8
I00
sg9
F0.05344544308604483
sg10
I0
sg12
F0.0
sg13
F0.0269086935361602
sg14
F0.0
sg15
F0.07164693797691254
sg16
F0.0
sg17
I0
sg18
I0
sg19
I713
sg20
F0.0
sg21
F0.0
sg22
F0.040625
sg23
F0.0
sg24
F0.0
sg25
F0.0
sg26
F0.005127398039120627
sg27
F0.16194864686450403
sg28
F0.16638710362490078
sg29
I807956
sg30
F0.0
sg31
F0.5
sg32
F0.0010234564700579677
ssS'GAHN ROBERT S'
p224
(dp225
g3
F0.3125174499767333
sg4
I0
sg5
F0.0001509465173555473
sg6
I73122
sg7
F0.21891652059117953
sg8
I00
sg9
F0.0
sg10
I0
sg12
F0.0
sg13
F0.0
sg14
F0.0
sg15
F0.10824284223570077
sg16
F0.0
sg17
I0
sg18
I0
sg19
I76547
sg20
F0.0
sg21
F0.0
sg22
F0.06373374999999999
sg23
F0.0
sg24
F0.0002973416741192323
sg25
F0.0
sg26
F0.007378824474529333
sg27
F0.16352815333524048
sg28
F0.17278435790788457
sg29
I900585
sg30
F0.002423316334183291
sg31
F0.5406
sg32
F0.0022095815181383933
ssS'MCCLELLAN GEORGE'
p226
(dp227
g3
F0.5668683108422521
sg4
I1744
sg5
F0.00032734644009654754
sg6
I0
sg7
F1.0
sg8
I00
sg9
F0.0
sg10
S'george.mcclellan@enron.com'
p228
sg12
F0.09848484848484848
sg13
F0.0
sg14
F0.0
sg15
F0.13927069066718842
sg16
F0.2660749864155044
sg17
I0
sg18
I49
sg19
I51587
sg20
F0.13713759779107224
sg21
F0.0
sg22
F0.11249999999999999
sg23
F0.0
sg24
F0.03566958662658737
sg25
F0.0
sg26
F0.02018046444115597
sg27
F0.17537450944893823
sg28
F0.23704036326397648
sg29
I1318763
sg30
F0.014753678076965716
sg31
F0.5
sg32
F0.007358211458984643
ssS'HERMANN ROBERT J'
p229
(dp230
g3
F0.3304792926942764
sg4
I0
sg5
F0.00023140038341306913
sg6
I0
sg7
F0.21138470819144706
sg8
I00
sg9
F0.029152059865115366
sg10
S'robert.hermann@enron.com'
p231
sg12
F0.0
sg13
F0.010332518576279896
sg14
F0.0
sg15
F0.10863007891475901
sg16
F0.0
sg17
I0
sg18
I0
sg19
I416441
sg20
F0.0
sg21
F0.0
sg22
F0.0875
sg23
F0.0
sg24
F0.07989987404355571
sg25
F0.0
sg26
F0.014489614726693287
sg27
F0.17765111782761256
sg28
F0.2363654524871812
sg29
I1297461
sg30
F0.005458772092451278
sg31
F0.5
sg32
F0.0015597544382257604
ssS'SCRIMSHAW MATTHEW'
p232
(dp233
g3
F0.9999999999999999
sg4
I0
sg5
F0.0
sg6
I0
sg7
F0.0
sg8
I00
sg9
F0.0
sg10
S'matthew.scrimshaw@enron.com'
p234
sg12
F0.0
sg13
F0.0
sg14
F0.0
sg15
F0.0
sg16
F0.0
sg17
I0
sg18
I0
sg19
I0
sg20
F0.0
sg21
F0.0
sg22
F0.0
sg23
F0.0
sg24
F0.0
sg25
F0.0
sg26
F0.01634957896045078
sg27
F0.1499748016029313
sg28
F0.0
sg29
I0
sg30
F0.02211332562253875
sg31
F0.5
sg32
F0.0
ssS'GATHMANN WILLIAM D'
p235
(dp236
g3
F0.9083294555607258
sg4
I0
sg5
F0.0
sg6
I0
sg7
F0.0
sg8
I00
sg9
F0.0
sg10
I0
sg12
F0.0
sg13
F0.0
sg14
F-72419.0
sg15
F0.0
sg16
F0.0
sg17
I0
sg18
I0
sg19
I0
sg20
F0.0
sg21
F0.0
sg22
F0.0
sg23
F0.0
sg24
F0.0
sg25
F0.0
sg26
F0.040473737213470654
sg27
F0.16517750819638902
sg28
F0.0
sg29
I0
sg30
F0.05105818078661284
sg31
F0.5
sg32
F0.0
ssS'HAEDICKE MARK E'
p237
(dp238
g3
F0.7747789669613773
sg4
I4009
sg5
F0.00019527619728525148
sg6
I2157527
sg7
F0.3329603126379703
sg8
I00
sg9
F0.1911104097341449
sg10
S'mark.haedicke@enron.com'
p239
sg12
F0.34090909090909094
sg13
F0.047553829147074206
sg14
F-329825.0
sg15
F0.12529348464097045
sg16
F0.33454084404999096
sg17
I0
sg18
I1941
sg19
I52382
sg20
F0.20662678324896458
sg21
F0.0
sg22
F0.14375
sg23
F0.0314
sg24
F0.266661263913279
sg25
F0.10016420361247948
sg26
F0.017235302371389805
sg27
F0.1801581164866156
sg28
F0.3366679924913926
sg29
I3859065
sg30
F0.017722813393491816
sg31
F0.77955
sg32
F0.0017249647127798196
ssS'BOWEN JR RAYMOND M'
p240
(dp241
g3
F0.0693345742205677
sg4
I1858
sg5
F8.230055701293535e-05
sg6
I0
sg7
F0.2881016597963832
sg8
I01
sg9
F0.1893509857477523
sg10
S'raymond.bowen@enron.com'
p242
sg12
F0.26515151515151514
sg13
F0.06327061935406833
sg14
F0.0
sg15
F0.1975151633731168
sg16
F0.288534685745336
sg17
I0
sg18
I27
sg19
I1621
sg20
F0.3465255407271054
sg21
F0.0
sg22
F0.16874999999999998
sg23
F0.5556
sg24
F0.00023770212527957822
sg25
F0.02463054187192118
sg26
F0.006024880370782777
sg27
F0.16448892859824588
sg28
F0.25070775643459936
sg29
I2669589
sg30
F0.0
sg31
F0.5
sg32
F0.00200455133125592
ssS'GILLIS JOHN'
p243
(dp244
g3
F0.1758957654723127
sg4
I0
sg5
F0.0
sg6
I0
sg7
F0.0
sg8
I00
sg9
F0.0
sg10
I0
sg12
F0.0
sg13
F0.0
sg14
F0.0
sg15
F0.0
sg16
F0.0
sg17
I0
sg18
I0
sg19
I0
sg20
F0.0
sg21
F0.0
sg22
F0.0
sg23
F0.0
sg24
F0.0
sg25
F0.0
sg26
F0.0026393284101973767
sg27
F0.1543417943746306
sg28
F0.0
sg29
I0
sg30
F0.00028539916171893266
sg31
F0.5
sg32
F0.0
ssS'FITZGERALD JAY L'
p245
(dp246
g3
F0.45072126570497906
sg4
I936
sg5
F0.0007405412671203716
sg6
I0
sg7
F0.1043437968552607
sg8
I00
sg9
F0.10813781694605354
sg10
S'jay.fitzgerald@enron.com'
p247
sg12
F0.001893939393939394
sg13
F0.05054810654923551
sg14
F0.0
sg15
F0.07163470945020545
sg16
F0.13095453722151784
sg17
I0
sg18
I16
sg19
I285414
sg20
F0.005062126092959043
sg21
F0.0
sg22
F0.04375
sg23
F0.5
sg24
F0.0
sg25
F0.013136288998357963
sg26
F0.033879708804365756
sg27
F0.20506894318291224
sg28
F0.17921760743229745
sg29
I1414857
sg30
F0.0193447528710521
sg31
F0.5
sg32
F0.001015831380463165
ssS'MORAN MICHAEL P'
p248
(dp249
g3
F0.31986970684039084
sg4
I672
sg5
F0.0
sg6
I0
sg7
F0.0
sg8
I00
sg9
F0.0
sg10
S'michael.moran@enron.com'
p250
sg12
F0.0
sg13
F0.0
sg14
F0.0
sg15
F0.0
sg16
F0.023003079152327476
sg17
I0
sg18
I19
sg19
I0
sg20
F0.0
sg21
F0.0
sg22
F0.0
sg23
F0.0
sg24
F0.0
sg25
F0.0
sg26
F0.005395961209477015
sg27
F0.15928035773431862
sg28
F0.0
sg29
I0
sg30
F0.0017333857685997687
sg31
F0.5
sg32
F0.0
ssS'REDMOND BRIAN L'
p251
(dp252
g3
F0.9550488599348533
sg4
I1671
sg5
F0.0074120443840436
sg6
I0
sg7
F0.0642105585256357
sg8
I00
sg9
F0.0
sg10
S'brian.redmond@enron.com'
p253
sg12
F0.38636363636363635
sg13
F0.0
sg14
F0.0
sg15
F0.0
sg16
F0.19253758377105595
sg17
I0
sg18
I221
sg19
I0
sg20
F0.5618959963184538
sg21
F0.0
sg22
F0.0
sg23
F0.2217
sg24
F0.0
sg25
F0.08045977011494253
sg26
F0.16141899738274498
sg27
F0.17193040221156242
sg28
F0.08714447949981012
sg29
I111529
sg30
F0.218614040183084
sg31
F0.5
sg32
F0.0012852512128128616
ssS'BAZELIDES PHILIP J'
p254
(dp255
g3
F0.9999999999999999
sg4
I0
sg5
F0.0018005782635268383
sg6
I684694
sg7
F0.0
sg8
I00
sg9
F0.018220037415697103
sg10
I0
sg12
F0.0
sg13
F0.02098708028100977
sg14
F0.0
sg15
F0.0
sg16
F0.0
sg17
I0
sg18
I0
sg19
I874
sg20
F0.0
sg21
F0.0
sg22
F0.0
sg23
F0.0
sg24
F0.0
sg25
F0.0
sg26
F0.033440376809528535
sg27
F0.1499748016029313
sg28
F0.0727265855453909
sg29
I860136
sg30
F0.04657107012661789
sg31
F0.898
sg32
F0.0
ssS'BELDEN TIMOTHY N'
p256
(dp257
g3
F0.8679385760818984
sg4
I7991
sg5
F0.00047215248260035046
sg6
I2144013
sg7
F0.07586454103154794
sg8
I01
sg9
F0.0
sg10
S'tim.belden@enron.com'
p258
sg12
F0.4318181818181818
sg13
F0.0
sg14
F0.0
sg15
F1.0
sg16
F1.0
sg17
I0
sg18
I484
sg19
I210698
sg20
F0.13115508513575702
sg21
F0.0
sg22
F0.656249875
sg23
F0.2231
sg24
F0.6661463662964069
sg25
F0.17733990147783252
sg26
F0.02349338777374559
sg27
F0.15904812479241265
sg28
F0.1925736417645587
sg29
I5501630
sg30
F0.027749078384590085
sg31
F0.69485
sg32
F0.0006871052957094469
ssS'DURAN WILLIAM D'
p259
(dp260
g3
F0.8927873429502093
sg4
I904
sg5
F0.0007084925368941561
sg6
I0
sg7
F0.11271490581956
sg8
I00
sg9
F0.21479587533335381
sg10
S'w.duran@enron.com'
p261
sg12
F0.20075757575757577
sg13
F0.09490683364663186
sg14
F0.0
sg15
F0.14509962173090718
sg16
F0.10849483789168629
sg17
I0
sg18
I12
sg19
I1568
sg20
F0.5398067188219052
sg21
F0.0
sg22
F0.09375
sg23
F0.25
sg24
F0.0
sg25
F0.0049261083743842365
sg26
F0.03427995968032906
sg27
F0.16086038245362366
sg28
F0.18959773517940928
sg29
I2093263
sg30
F0.04226891722184077
sg31
F0.5
sg32
F0.0010370121848931723
ssS'THORN TERENCE H'
p262
(dp263
g3
F0.929455560725919
sg4
I266
sg5
F0.0019733848713545956
sg6
I16586
sg7
F0.20171531235383347
sg8
I00
sg9
F0.03886941315348715
sg10
S'terence.thorn@enron.com'
p264
sg12
F0.0
sg13
F0.016292125683663186
sg14
F0.0
sg15
F0.0
sg16
F0.013222242347400832
sg17
I0
sg18
I41
sg19
I426629
sg20
F0.0
sg21
F0.0
sg22
F0.0
sg23
F0.0
sg24
F0.0
sg25
F0.0
sg26
F0.09891101611702495
sg27
F0.17101108683404484
sg28
F0.1998572788677337
sg29
I911453
sg30
F0.12962694256591517
sg31
F0.5091
sg32
F0.0017605484642222323
ssS'FASTOW ANDREW S'
p265
(dp266
g3
F0.0693345742205677
sg4
I0
sg5
F0.00037040254005700105
sg6
I0
sg7
F0.24444949576636085
sg8
I01
sg9
F0.3373971952608857
sg10
S'andrew.fastow@enron.com'
p267
sg12
F0.0
sg13
F0.07127103909567395
sg14
F0.0
sg15
F0.1202431031109372
sg16
F0.0
sg17
I0
sg18
I0
sg19
I277464
sg20
F0.0
sg21
F0.0
sg22
F0.1625
sg23
F0.0
sg24
F0.39552007113371646
sg25
F0.0
sg26
F0.03740282793091964
sg27
F0.2533027405444973
sg28
F0.3965757726828513
sg29
I2424083
sg30
F0.0
sg31
F0.5
sg32
F0.0010751376328671863
ssS'FOY JOE'
p268
(dp269
g3
F0.9999999999999999
sg4
I57
sg5
F0.0
sg6
I181755
sg7
F0.0
sg8
I00
sg9
F0.0
sg10
S'tracy.foy@enron.com'
p270
sg12
F0.0
sg13
F0.0
sg14
F0.0
sg15
F0.0
sg16
F0.0003622532149972831
sg17
I0
sg18
I13
sg19
I0
sg20
F0.0
sg21
F0.0
sg22
F0.0
sg23
F0.0
sg24
F0.0
sg25
F0.0
sg26
F0.007883908773479265
sg27
F0.1499748016029313
sg28
F0.0
sg29
I181755
sg30
F0.009998548985594198
sg31
F1.0
sg32
F0.0
ssS'CALGER CHRISTOPHER F'
p271
(dp272
g3
F0.0693345742205677
sg4
I2598
sg5
F4.773195784755961e-05
sg6
I0
sg7
F0.15657252265445026
sg8
I01
sg9
F0.07293923117078172
sg10
S'christopher.calger@enron.com'
p273
sg12
F0.3768939393939394
sg13
F0.028269235292308417
sg14
F0.0
sg15
F0.21213232896367312
sg16
F0.3963050172070277
sg17
I0
sg18
I144
sg19
I486
sg20
F0.35250805338242064
sg21
F0.0
sg22
F0.15625
sg23
F0.1736
sg24
F0.07490613191583348
sg25
F0.041050903119868636
sg26
F0.00346094739345721
sg27
F0.15723183630900145
sg28
F0.21614152609025086
sg29
I1639297
sg30
F0.0
sg31
F0.5
sg32
F0.0012632231762056538
ssS'RICE KENNETH D'
p274
(dp275
g3
F0.8865518845974871
sg4
I905
sg5
F0.004875227734292501
sg6
I0
sg7
F0.20523423805423083
sg8
I01
sg9
F0.31426134316366705
sg10
S'ken.rice@enron.com'
p276
sg12
F0.07954545454545454
sg13
F0.0695504603588429
sg14
F0.0
sg15
F0.1695852083740951
sg16
F0.1564933888788263
sg17
I0
sg18
I18
sg19
I174839
sg20
F0.21352968246663598
sg21
F0.0
sg22
F0.21875
sg23
F0.2222
sg24
F1.0
sg25
F0.006568144499178982
sg26
F0.45950590846095235
sg27
F0.30823432482346147
sg28
F0.3785223593440947
sg29
I505050
sg30
F0.5762767471098494
sg31
F0.5
sg32
F0.0009455111097555396
ssS'KAMINSKI WINCENTY J'
p277
(dp278
g3
F0.8798510935318752
sg4
I4607
sg5
F0.0003227524552074647
sg6
I0
sg7
F0.36537814244436384
sg8
I00
sg9
F0.06286466797552938
sg10
S'vince.kaminski@enron.com'
p279
sg12
F0.07765151515151515
sg13
F0.02127293878828559
sg14
F0.0
sg15
F0.05926759277375595
sg16
F0.10559681217170802
sg17
I0
sg18
I14368
sg19
I4669
sg20
F0.04095720202485044
sg21
F0.0
sg22
F0.049999999999999996
sg23
F0.0119
sg24
F0.0
sg25
F0.28078817733990147
sg26
F0.020753681310178136
sg27
F0.15723183630900145
sg28
F0.24755817280955458
sg29
I1086821
sg30
F0.024746724620290723
sg31
F0.5
sg32
F0.0025738913543345244
ssS'COX DAVID'
p280
(dp281
g3
F0.29008841321544904
sg4
I102
sg5
F0.00014345968653630933
sg6
I0
sg7
F0.12178979992393876
sg8
I00
sg9
F0.0
sg10
S'chip.cox@enron.com'
p282
sg12
F0.0
sg13
F0.0
sg14
F0.0
sg15
F0.10375497293419421
sg16
F0.01285998913240355
sg17
I0
sg18
I33
sg19
I494
sg20
F0.0
sg21
F0.0
sg22
F0.09999999999999999
sg23
F0.1212
sg24
F0.011770963586773832
sg25
F0.006568144499178982
sg26
F0.010980268592059056
sg27
F0.17174596330431602
sg28
F0.28282181095659154
sg29
I1101393
sg30
F0.0034223152972786145
sg31
F0.5
sg32
F0.0007506477089994696
ssS'OVERDYKE JR JERE C'
p283
(dp284
g3
F0.7400651465798045
sg4
I0
sg5
F0.0070019425369451
sg6
I0
sg7
F0.08232974738047674
sg8
I00
sg9
F0.026399328025585405
sg10
S'jere.overdyke@enron.com'
p285
sg12
F0.0
sg13
F0.025884668756931618
sg14
F0.0
sg15
F0.0
sg16
F0.0
sg17
I0
sg18
I0
sg19
I176
sg20
F0.0
sg21
F0.0
sg22
F0.0
sg23
F0.0
sg24
F0.0
sg25
F0.0
sg26
F0.14956384881356252
sg27
F0.26750298165676467
sg28
F0.08543560541296441
sg29
I249787
sg30
F0.15332826138196196
sg31
F0.5
sg32
F0.0016809086395654037
ssS'PEREIRA PAULO V. FERRAZ'
p286
(dp287
g3
F0.0693345742205677
sg4
I0
sg5
F0.0
sg6
I0
sg7
F0.12214387816211539
sg8
I00
sg9
F0.0
sg10
I0
sg12
F0.0
sg13
F0.0
sg14
F0.0
sg15
F0.0
sg16
F0.0
sg17
I0
sg18
I0
sg19
I0
sg20
F0.0
sg21
F101250.0
sg22
F0.0
sg23
F0.0
sg24
F0.02889236516753577
sg25
F0.0
sg26
F0.0008970347602851445
sg27
F0.1499748016029313
sg28
F0.0
sg29
I27942
sg30
F0.0
sg31
F0.5
sg32
F0.0
ssS'STABLER FRANK'
p288
(dp289
g3
F0.0693345742205677
sg4
I0
sg5
F0.00019437559430699562
sg6
I0
sg7
F0.07218824722529431
sg8
I00
sg9
F0.0
sg10
S'frank.stabler@enron.com'
p290
sg12
F0.0
sg13
F0.0
sg14
F0.0
sg15
F0.0850983173547251
sg16
F0.0
sg17
I0
sg18
I0
sg19
I356071
sg20
F0.0
sg21
F0.0
sg22
F0.0625
sg23
F0.0
sg24
F0.0
sg25
F0.0
sg26
F0.011307829807566077
sg27
F0.1794420697143368
sg28
F0.21552330781870635
sg29
I1112087
sg30
F0.0
sg31
F0.5
sg32
F0.00058459020226821
ssS'SKILLING JEFFREY K'
p291
(dp292
g3
F0.7558864588180548
sg4
I3627
sg5
F0.002136084712426371
sg6
I0
sg7
F0.1282375209277724
sg8
I01
sg9
F0.37314636627347664
sg10
S'jeff.skilling@enron.com'
p293
sg12
F0.16666666666666669
sg13
F0.03125989423235231
sg14
F0.0
sg15
F0.20541071545033587
sg16
F0.36986053251222606
sg17
I0
sg18
I108
sg19
I22122
sg20
F0.11182696732627703
sg21
F0.0
sg22
F0.7
sg23
F0.2778
sg24
F0.0
sg25
F0.04926108374384236
sg26
F0.5317507033126446
sg27
F0.5440551591529837
sg28
F1.0
sg29
I8682716
sg30
F0.5604339348249978
sg31
F0.5
sg32
F0.00022366929478088033
ssS'BLAKE JR. NORMAN P'
p294
(dp295
g3
F0.0693345742205677
sg4
I0
sg5
F0.0
sg6
I0
sg7
F0.005590939094171698
sg8
I00
sg9
F0.0
sg10
I0
sg12
F0.0
sg13
F0.0
sg14
F0.0
sg15
F0.0
sg16
F0.0
sg17
I0
sg18
I0
sg19
I0
sg20
F0.0
sg21
F113784.0
sg22
F0.0
sg23
F0.0
sg24
F0.03246902595775694
sg25
F0.0
sg26
F0.0008970347602851445
sg27
F0.1499748016029313
sg28
F0.0
sg29
I1279
sg30
F0.0
sg31
F0.5
sg32
F0.0
ssS'SHERRICK JEFFREY B'
p296
(dp297
g3
F0.7937645416472777
sg4
I613
sg5
F0.0
sg6
I0
sg7
F0.0
sg8
I00
sg9
F0.0
sg10
S'jeffrey.sherrick@enron.com'
p298
sg12
F0.07386363636363637
sg13
F0.0
sg14
F0.0
sg15
F0.0
sg16
F0.10559681217170802
sg17
I0
sg18
I25
sg19
I0
sg20
F0.29268292682926833
sg21
F0.0
sg22
F0.0
sg23
F0.72
sg24
F0.0
sg25
F0.029556650246305417
sg26
F0.038177045036523964
sg27
F0.17335351278093103
sg28
F0.0
sg29
I0
sg30
F0.04152943556238337
sg31
F0.5
sg32
F0.0
ssS'PRENTICE JAMES'
p299
(dp300
g3
F0.8225221033038622
sg4
I0
sg5
F0.0
sg6
I564348
sg7
F0.0
sg8
I00
sg9
F0.0
sg10
S'james.prentice@enron.com'
p301
sg12
F0.0
sg13
F0.0
sg14
F0.0
sg15
F0.0
sg16
F0.0
sg17
I0
sg18
I0
sg19
I0
sg20
F0.0
sg21
F0.0
sg22
F0.0
sg23
F0.0
sg24
F0.0
sg25
F0.0
sg26
F0.023174696609164665
sg27
F0.16199868664296083
sg28
F0.0
sg29
I564348
sg30
F0.025801242934747674
sg31
F1.0
sg32
F0.0
ssS'GRAY RODNEY'
p302
(dp303
g3
F0.0693345742205677
sg4
I0
sg5
F0.0
sg6
I93585
sg7
F0.0
sg8
I00
sg9
F0.0710581459212187
sg10
I0
sg12
F0.0
sg13
F1.0
sg14
F0.0
sg15
F0.0
sg16
F0.0
sg17
I0
sg18
I0
sg19
I680833
sg20
F0.0
sg21
F0.0
sg22
F0.0
sg23
F0.0
sg24
F0.0
sg25
F0.0
sg26
F0.0008970347602851445
sg27
F0.1499748016029313
sg28
F0.005952713051334614
sg29
I1146658
sg30
F0.0
sg31
F0.5408
sg32
F0.0
ssS'PICKERING MARK R'
p304
(dp305
g3
F0.9999999999999999
sg4
I898
sg5
F4.002679903359296e-06
sg6
I0
sg7
F0.13836590707413352
sg8
I00
sg9
F0.0
sg10
S'mark.pickering@enron.com'
p306
sg12
F0.013257575757575758
sg13
F0.0
sg14
F0.0
sg15
F0.01866888410617622
sg16
F0.13186017025901103
sg17
I400000
sg18
I67
sg19
I0
sg20
F0.03589507593189139
sg21
F0.0
sg22
F0.0375
sg23
F0.0
sg24
F0.0
sg25
F0.0
sg26
F0.0014829056927844436
sg27
F0.1499748016029313
sg28
F0.5894553739995573
sg29
I1386690
sg30
F0.0008384091664981968
sg31
F0.5
sg32
F0.00040921314158774697
ssS'NOLES JAMES L'
p307
(dp308
g3
F0.0693345742205677
sg4
I0
sg5
F0.0
sg6
I774401
sg7
F0.0
sg8
I00
sg9
F0.0
sg10
I0
sg12
F0.0
sg13
F0.0
sg14
F-94556.0
sg15
F0.0
sg16
F0.0
sg17
I0
sg18
I0
sg19
I0
sg20
F0.0
sg21
F0.0
sg22
F0.0
sg23
F0.0
sg24
F0.0
sg25
F0.0
sg26
F0.008398025876583292
sg27
F0.1766508405070452
sg28
F0.0
sg29
I774401
sg30
F0.0
sg31
F1.0
sg32
F0.0
ssS'KEAN STEVEN J'
p309
(dp310
g3
F0.37515123313168913
sg4
I12754
sg5
F0.0013844814935730788
sg6
I0
sg7
F0.1833906706941245
sg8
I00
sg9
F0.05830411973023073
sg10
S'steven.kean@enron.com'
p311
sg12
F0.26515151515151514
sg13
F0.01342449445561142
sg14
F0.0
sg15
F0.10081197417335158
sg16
F0.6591197246875566
sg17
I0
sg18
I6759
sg19
I1231
sg20
F0.05062126092959043
sg21
F0.0
sg22
F0.125
sg23
F0.0573
sg24
F0.0
sg25
F0.6354679802955665
sg26
F0.1260876721936781
sg27
F0.3878850989946899
sg28
F0.3638560982238148
sg29
I1747522
sg30
F0.05886879569065025
sg31
F0.5
sg32
F0.0008794269999339158
ssS'FOWLER PEGGY'
p312
(dp313
g3
F0.7234062354583526
sg4
I517
sg5
F0.0
sg6
I0
sg7
F0.0
sg8
I00
sg9
F0.0
sg10
S'kulvinder.fowler@enron.com'
p314
sg12
F0.0
sg13
F0.0
sg14
F0.0
sg15
F0.0
sg16
F0.0018112660749864155
sg17
I0
sg18
I36
sg19
I0
sg20
F0.0
sg21
F0.0
sg22
F0.0
sg23
F0.0
sg24
F0.0
sg25
F0.0
sg26
F0.0392406373815154
sg27
F0.18223116834417968
sg28
F0.0
sg29
I0
sg30
F0.03856303691026629
sg31
F0.5
sg32
F0.0
ssS'WASAFF GEORGE'
p315
(dp316
g3
F0.8242903676128431
sg4
I400
sg5
F0.0007195271976277353
sg6
I831299
sg7
F0.0
sg8
I00
sg9
F0.03886941315348715
sg10
S'george.wasaff@enron.com'
p317
sg12
F0.04166666666666667
sg13
F0.013916605303579925
sg14
F0.0
sg15
F0.05095219461292637
sg16
F0.061039666727042204
sg17
I0
sg18
I30
sg19
I1425
sg20
F0.25310630464795214
sg21
F0.0
sg22
F0.040625
sg23
F0.2333
sg24
F0.16645569295163262
sg25
F0.011494252873563218
sg26
F0.04273330131027945
sg27
F0.1723266896170166
sg28
F0.23396546976489707
sg29
I1034395
sg30
F0.0485688060317481
sg31
F0.90185
sg32
F0.0
ssS'WHITE JR THOMAS E'
p318
(dp319
g3
F0.1489995346672871
sg4
I0
sg5
F0.004338504747251141
sg6
I0
sg7
F0.35562131988127454
sg8
I00
sg9
F0.0
sg10
S'thomas.white@enron.com'
p320
sg12
F0.0
sg13
F0.0
sg14
F0.0
sg15
F0.057763483988782366
sg16
F0.0
sg17
I0
sg18
I0
sg19
I1085463
sg20
F0.0
sg21
F0.0
sg22
F0.056249999999999994
sg23
F0.0
sg24
F0.0
sg25
F0.0
sg26
F0.3089913976984781
sg27
F0.9473332771321552
sg28
F0.2857509237278832
sg29
I1934359
sg30
F0.0377615727132898
sg31
F0.5
sg32
F0.0021706088379871793
ssS'CHRISTODOULOU DIOMEDES'
p321
(dp322
g3
F0.8544439274080967
sg4
I0
sg5
F0.0
sg6
I0
sg7
F0.0
sg8
I00
sg9
F0.0
sg10
S'diomedes.christodoulou@enron.com'
p323
sg12
F0.0
sg13
F0.0
sg14
F0.0
sg15
F0.0
sg16
F0.0
sg17
I0
sg18
I0
sg19
I0
sg20
F0.0
sg21
F0.0
sg22
F0.0
sg23
F0.0
sg24
F0.0
sg25
F0.0
sg26
F0.12454646015696207
sg27
F0.20472085289433764
sg28
F0.0
sg29
I0
sg30
F0.1492691766809175
sg31
F0.5
sg32
F0.0
ssS'ALLEN PHILLIP K'
p324
(dp325
g3
F0.9999999999999999
sg4
I2902
sg5
F0.0007790670611902049
sg6
I2869717
sg7
F0.06062169144485778
sg8
I00
sg9
F0.05923795738124326
sg10
S'phillip.allen@enron.com'
p326
sg12
F0.08901515151515152
sg13
F0.027306724369075903
sg14
F-126027.0
sg15
F0.8426636992108524
sg16
F0.2548451367505887
sg17
I0
sg18
I2195
sg19
I152
sg20
F0.07455131155085135
sg21
F0.0
sg22
F0.521875
sg23
F0.0296
sg24
F0.8791996657902412
sg25
F0.10673234811165845
sg26
F0.03608308234920695
sg27
F0.15723183630900145
sg28
F0.18173547457026182
sg29
I4484442
sg30
F0.05035290743226814
sg31
F0.81995
sg32
F0.000582048505736609
ssS'SHARP VICTORIA T'
p327
(dp328
g3
F0.5986970684039087
sg4
I3136
sg5
F0.00018114855662634924
sg6
I187469
sg7
F0.5085481480833877
sg8
I00
sg9
F0.08204516859024914
sg10
S'vicki.sharp@enron.com'
p329
sg12
F0.045454545454545456
sg13
F0.030778638770736052
sg14
F0.0
sg15
F0.09855784908367572
sg16
F0.4486506067741351
sg17
I0
sg18
I136
sg19
I2401
sg20
F0.035434882650713304
sg21
F0.0
sg22
F0.075
sg23
F0.0441
sg24
F0.0
sg25
F0.009852216748768473
sg26
F0.010949813394269228
sg27
F0.16224364546638456
sg28
F0.2233018794915312
sg29
I1576511
sg30
F0.008183005057821643
sg31
F0.55945
sg32
F0.003971824446715027
ssS'JAEDICKE ROBERT'
p330
(dp331
g3
F0.9999999999999999
sg4
I0
sg5
F0.0
sg6
I0
sg7
F0.0
sg8
I00
sg9
F0.0
sg10
I0
sg12
F0.0
sg13
F0.0
sg14
F-44093.0
sg15
F0.0
sg16
F0.0
sg17
I0
sg18
I0
sg19
I0
sg20
F0.0
sg21
F108750.0
sg22
F0.0
sg23
F0.0
sg24
F0.007133917325317474
sg25
F0.0
sg26
F0.009680623034004581
sg27
F0.15251381650683882
sg28
F0.0
sg29
I83750
sg30
F0.012569732538217809
sg31
F0.5
sg32
F0.0
ssS'WINOKUR JR. HERBERT S'
p332
(dp333
g3
F0.0693345742205677
sg4
I0
sg5
F0.0
sg6
I0
sg7
F0.006176698154858959
sg8
I00
sg9
F0.0
sg10
I0
sg12
F0.0
sg13
F0.0
sg14
F0.0
sg15
F0.0
sg16
F0.0
sg17
I0
sg18
I0
sg19
I0
sg20
F0.0
sg21
F108579.0
sg22
F0.0
sg23
F0.0
sg24
F0.007133917325317474
sg25
F0.0
sg26
F0.0008970347602851445
sg27
F0.1499748016029313
sg28
F0.0
sg29
I84992
sg30
F0.0
sg31
F0.5
sg32
F0.0
ssS'BROWN MICHAEL'
p334
(dp335
g3
F0.0693345742205677
sg4
I1486
sg5
F0.0
sg6
I0
sg7
F0.2154544222623414
sg8
I00
sg9
F0.0
sg10
S'michael.brown@enron.com'
p336
sg12
F0.02462121212121212
sg13
F0.0
sg14
F0.0
sg15
F0.0
sg16
F0.1378373483064662
sg17
I0
sg18
I41
sg19
I0
sg20
F0.04003681546249425
sg21
F0.0
sg22
F0.0
sg23
F0.0244
sg24
F0.0
sg25
F0.0016420361247947454
sg26
F0.0008970347602851445
sg27
F0.1499748016029313
sg28
F0.0
sg29
I49288
sg30
F0.0
sg31
F0.5
sg32
F0.0
ssS'BADUM JAMES P'
p337
(dp338
g3
F0.9999999999999999
sg4
I0
sg5
F0.0
sg6
I178980
sg7
F0.015238478250416371
sg8
I00
sg9
F0.0
sg10
I0
sg12
F0.0
sg13
F0.0
sg14
F0.0
sg15
F0.0
sg16
F0.0
sg17
I0
sg18
I0
sg19
I0
sg20
F0.0
sg21
F0.0
sg22
F0.0
sg23
F0.0
sg24
F0.0
sg25
F0.0
sg26
F0.006142103383251037
sg27
F0.1499748016029313
sg28
F0.0
sg29
I182466
sg30
F0.007505942637650726
sg31
F0.99045
sg32
F0.0
ssS'HUGHES JAMES A'
p339
(dp340
g3
F0.6975337366216845
sg4
I719
sg5
F0.0
sg6
I0
sg7
F0.0
sg8
I00
sg9
F0.0
sg10
S'james.hughes@enron.com'
p341
sg12
F0.06628787878787878
sg13
F0.0
sg14
F0.0
sg15
F0.0
sg16
F0.10668357181669987
sg17
I0
sg18
I34
sg19
I0
sg20
F0.22411412793373217
sg21
F0.0
sg22
F0.0
sg23
F0.1471
sg24
F0.0
sg25
F0.008210180623973728
sg26
F0.023649813970008773
sg27
F0.1709021394682908
sg28
F0.0
sg29
I0
sg30
F0.02197966576826438
sg31
F0.5
sg32
F0.0
ssS'REYNOLDS LAWRENCE'
p342
(dp343
g3
F0.9865053513261982
sg4
I0
sg5
F0.0050271021456256455
sg6
I51365
sg7
F0.036758566726262557
sg8
I00
sg9
F0.03036672902616184
sg10
I0
sg12
F0.0
sg13
F0.03700239361269067
sg14
F-140264.0
sg15
F0.053353062023087455
sg16
F0.0
sg17
I0
sg18
I0
sg19
I202052
sg20
F0.0
sg21
F0.0
sg22
F0.012499999999999999
sg23
F0.0
sg24
F0.057071338602539795
sg25
F0.0
sg26
F0.0867878333254771
sg27
F0.1615768323081225
sg28
F0.06875001124851295
sg29
I394475
sg30
F0.12113152106369837
sg31
F0.5651
sg32
F0.0009328026270975351
ssS'DIMICHELE RICHARD G'
p344
(dp345
g3
F0.9858538855281526
sg4
I0
sg5
F0.0028793914674799725
sg6
I0
sg7
F0.15654629463680753
sg8
I00
sg9
F0.13504439081329195
sg10
S'richard.dimichele@enron.com'
p346
sg12
F0.0
sg13
F0.04783968765435003
sg14
F0.0
sg15
F0.15511070892845497
sg16
F0.0
sg17
I0
sg18
I0
sg19
I374689
sg20
F0.0
sg21
F0.0
sg22
F0.125
sg23
F0.0
sg24
F0.0
sg25
F0.0
sg26
F0.17011526854964149
sg27
F0.15723183630900145
sg28
F0.23647793761664707
sg29
I2368151
sg30
F0.23849025910505717
sg31
F0.5
sg32
F0.0011547774575240148
ssS'BHATNAGAR SANJAY'
p347
(dp348
g3
F0.0693345742205677
sg4
I523
sg5
F0.0
sg6
I0
sg7
F0.0
sg8
I00
sg9
F0.0
sg10
S'sanjay.bhatnagar@enron.com'
p349
sg12
F0.0
sg13
F0.0
sg14
F15456290.0
sg15
F0.0
sg16
F0.08386161927187104
sg17
I0
sg18
I29
sg19
I137864
sg20
F0.0
sg21
F137864.0
sg22
F0.0
sg23
F0.0345
sg24
F0.0
sg25
F0.0016420361247947454
sg26
F0.0008970347602851445
sg27
F0.0
sg28
F0.0
sg29
I15456290
sg30
F0.07582569241103163
sg31
F0.5
sg32
F0.0
ssS'CARTER REBECCA C'
p350
(dp351
g3
F0.0693345742205677
sg4
I312
sg5
F0.0
sg6
I0
sg7
F0.0
sg8
I00
sg9
F0.014576029932557683
sg10
S'rebecca.carter@enron.com'
p352
sg12
F0.054924242424242424
sg13
F0.005183446983197671
sg14
F-307301.0
sg15
F0.04670889584556186
sg16
F0.035500815069733745
sg17
I0
sg18
I15
sg19
I540
sg20
F0.42751955821445004
sg21
F0.0
sg22
F0.0375
sg23
F0.4667
sg24
F0.045597716689885194
sg25
F0.011494252873563218
sg26
F0.0008970347602851445
sg27
F0.1676701686449942
sg28
F0.23559695408267026
sg29
I477557
sg30
F0.0
sg31
F0.5
sg32
F0.0
ssS'BUCHANAN HAROLD G'
p353
(dp354
g3
F0.8266170311772917
sg4
I1088
sg5
F0.00037211277601570907
sg6
I0
sg7
F0.0026228017642713204
sg8
I00
sg9
F0.05923795738124326
sg10
S'john.buchanan@enron.com'
p355
sg12
F0.0
sg13
F0.02223544971151811
sg14
F0.0
sg15
F0.08217569947172765
sg16
F0.004165911972468755
sg17
I0
sg18
I125
sg19
I1215
sg20
F0.0
sg21
F0.0
sg22
F0.0625
sg23
F0.0
sg24
F0.0
sg25
F0.0
sg26
F0.021536280207024548
sg27
F0.16086038245362366
sg28
F0.22318579483792242
sg29
I1054637
sg30
F0.024032105848123743
sg31
F0.5
sg32
F2.03335722528073e-05
ssS'YEAP SOON'
p356
(dp357
g3
F0.9999999999999999
sg4
I0
sg5
F0.0
sg6
I0
sg7
F0.24084751467676155
sg8
I00
sg9
F0.0
sg10
I0
sg12
F0.0
sg13
F0.0
sg14
F0.0
sg15
F0.0
sg16
F0.0
sg17
I0
sg18
I0
sg19
I0
sg20
F0.0
sg21
F0.0
sg22
F0.0
sg23
F0.0
sg24
F0.0
sg25
F0.0
sg26
F0.004818533100680307
sg27
F0.1499748016029313
sg28
F0.0
sg29
I55097
sg30
F0.005611850618649192
sg31
F0.5
sg32
F0.0
ssS'MURRAY JULIA H'
p358
(dp359
g3
F0.6931596091205211
sg4
I2192
sg5
F0.00023704962027667396
sg6
I0
sg7
F0.25170154264457106
sg8
I00
sg9
F0.02429338322092947
sg10
S'julia.murray@enron.com'
p360
sg12
F0.020833333333333336
sg13
F0.009863927732074592
sg14
F0.0
sg15
F0.07111295897736906
sg16
F0.0715450099619634
sg17
I0
sg18
I45
sg19
I330
sg20
F0.02300966405890474
sg21
F0.0
sg22
F0.049999999999999996
sg23
F0.0444
sg24
F0.0
sg25
F0.003284072249589491
sg26
F0.013051873054679329
sg27
F0.16131770802382378
sg28
F0.20632832339564708
sg29
I812194
sg30
F0.011659296693550415
sg31
F0.5
sg32
F0.002127399996949964
ssS'GARLAND C KEVIN'
p361
(dp362
g3
F0.7301070265239645
sg4
I209
sg5
F0.0003514716835140677
sg6
I0
sg7
F0.21159453233258876
sg8
I00
sg9
F0.07293923117078172
sg10
S'kevin.garland@enron.com'
p363
sg12
F0.01893939393939394
sg13
F0.029275167760949922
sg14
F0.0
sg15
F0.14937552990282396
sg16
F0.0322405361347582
sg17
I0
sg18
I44
sg19
I60814
sg20
F0.21997238840312933
sg21
F0.0
sg22
F0.10625
sg23
F0.6136
sg24
F0.0
sg25
F0.04433497536945813
sg26
F0.01912850895196666
sg27
F0.16494107168276
sg28
F0.20872380671275256
sg29
I1566469
sg30
F0.01852331684658003
sg31
F0.5
sg32
F0.001768173553817035
ssS'DODSON KEITH'
p364
(dp365
g3
F0.0693345742205677
sg4
I176
sg5
F0.0
sg6
I0
sg7
F0.12311431481489578
sg8
I00
sg9
F0.0
sg10
S'keith.dodson@enron.com'
p366
sg12
F0.01893939393939394
sg13
F0.0
sg14
F0.0
sg15
F0.012909248027131023
sg16
F0.020648433254845135
sg17
I0
sg18
I14
sg19
I774
sg20
F0.26138978370915783
sg21
F0.0
sg22
F0.008749999999999999
sg23
F0.2143
sg24
F0.0
sg25
F0.0049261083743842365
sg26
F0.0008970347602851445
sg27
F0.1499748016029313
sg28
F0.19887640853879116
sg29
I319941
sg30
F0.0
sg31
F0.5
sg32
F0.0010793737937531878
ssS'YEAGER F SCOTT'
p367
(dp368
g3
F0.7199627733829688
sg4
I0
sg5
F0.006825351577208711
sg6
I0
sg7
F0.2358204779619082
sg8
I01
sg9
F0.0
sg10
S'scott.yeager@enron.com'
p369
sg12
F0.0
sg13
F0.0
sg14
F0.0
sg15
F0.0
sg16
F0.0
sg17
I0
sg18
I0
sg19
I147950
sg20
F0.0
sg21
F0.0
sg22
F0.0
sg23
F0.0
sg24
F0.0
sg25
F0.0
sg26
F0.2426823758252377
sg27
F0.3559040949928896
sg28
F0.14254385570227615
sg29
I360300
sg30
F0.24189062286016133
sg31
F0.5
sg32
F0.0028856727955442365
ssS'HIRKO JOSEPH'
p370
(dp371
g3
F0.9999999999999999
sg4
I0
sg5
F0.0
sg6
I10259
sg7
F0.34086805995724834
sg8
I01
sg9
F0.0
sg10
S'joe.hirko@enron.com'
p372
sg12
F0.0
sg13
F0.0
sg14
F0.0
sg15
F0.0
sg16
F0.0
sg17
I0
sg18
I0
sg19
I2856
sg20
F0.0
sg21
F0.0
sg22
F0.0
sg23
F0.0
sg24
F0.0
sg25
F0.0
sg26
F0.6268065633738387
sg27
F0.1499748016029313
sg28
F0.0
sg29
I91093
sg30
F0.8957063016414396
sg31
F0.5563
sg32
F0.0
ssS'DIETRICH JANET R'
p373
(dp374
g3
F0.8428106095858537
sg4
I2572
sg5
F0.0006783996616207185
sg6
I0
sg7
F0.01519039355140473
sg8
I00
sg9
F0.10813781694605354
sg10
S'janet.dietrich@enron.com'
p375
sg12
F0.5776515151515151
sg13
F0.04025177259412977
sg14
F0.0
sg15
F0.09778745190112828
sg16
F0.34450280746241624
sg17
I0
sg18
I63
sg19
I473
sg20
F0.5457892314772204
sg21
F0.0
sg22
F0.075
sg23
F0.2222
sg24
F0.0
sg25
F0.022988505747126436
sg26
F0.0388406509795476
sg27
F0.1681174171596938
sg28
F0.22506024703534191
sg29
I1410464
sg30
F0.04512640245316927
sg31
F0.5
sg32
F0.00011776527263084228
ssS'DERRICK JR. JAMES V'
p376
(dp377
g3
F0.9999999999999999
sg4
I2181
sg5
F0.00163176523860266
sg6
I0
sg7
F0.22348019566101163
sg8
I00
sg9
F0.09406397983143891
sg10
S'james.derrick@enron.com'
p378
sg12
F0.12121212121212122
sg13
F0.01778474130709707
sg14
F-1787380.0
sg15
F0.0662297006456662
sg16
F0.2537583771055968
sg17
I0
sg18
I909
sg19
I7482
sg20
F0.13483663138518176
sg21
F0.0
sg22
F0.09999999999999999
sg23
F0.022
sg24
F0.36639799382830546
sg25
F0.03284072249589491
sg26
F0.18057482853286244
sg27
F0.2528978156628998
sg28
F0.44307892496611945
sg29
I550981
sg30
F0.2571274677725741
sg31
F0.5
sg32
F0.0008794269999339158
ssS'FREVERT MARK A'
p379
(dp380
g3
F0.7333643555141925
sg4
I3275
sg5
F0.0012537848977286175
sg6
I6426990
sg7
F0.38024942844778226
sg8
I00
sg9
F0.31426134316366705
sg10
S'mark.frevert@enron.com'
p381
sg12
F0.45833333333333337
sg13
F0.027574490565764647
sg14
F0.0
sg15
F0.076839985651862
sg16
F0.5395761637384532
sg17
I2000000
sg18
I21
sg19
I7427621
sg20
F0.340082834790612
sg21
F0.0
sg22
F0.25
sg23
F0.2857
sg24
F0.9607991242973806
sg25
F0.009852216748768473
sg26
F0.29837301090888096
sg27
F0.3911715435008635
sg28
F0.9547125869959991
sg29
I17252530
sg30
F0.3037557167172697
sg31
F0.68625
sg32
F0.0006947303853042495
ssS'PAI LOU L'
p382
(dp383
g3
F0.6697068403908794
sg4
I0
sg5
F0.008273730397239054
sg6
I0
sg7
F0.140088213566005
sg8
I00
sg9
F0.0
sg10
S'lou.pai@enron.com'
p384
sg12
F0.0
sg13
F0.0
sg14
F0.0
sg15
F0.1556528402791365
sg16
F0.0
sg17
I0
sg18
I0
sg19
I1829457
sg20
F0.0
sg21
F0.0
sg22
F0.125
sg23
F0.0
sg24
F0.0
sg25
F0.0
sg26
F0.48545265873774984
sg27
F0.6367693098264996
sg28
F0.23565994575517116
sg29
I3123383
sg30
F0.4473039255645913
sg31
F0.5
sg32
F0.0010370121848931723
ssS'BAY FRANKLIN R'
p385
(dp386
g3
F0.0693345742205677
sg4
I0
sg5
F2.3916012422571797e-05
sg6
I260455
sg7
F0.5645231090692114
sg8
I00
sg9
F0.0
sg10
S'frank.bay@enron.com'
p387
sg12
F0.0
sg13
F0.0
sg14
F-82782.0
sg15
F0.06803137024717928
sg16
F0.0
sg17
I0
sg18
I0
sg19
I69
sg20
F0.0
sg21
F0.0
sg22
F0.049999999999999996
sg23
F0.0
sg24
F0.05753960893577363
sg25
F0.0
sg26
F0.0021790012489479277
sg27
F0.1583701980815129
sg28
F0.21567538771374423
sg29
I827696
sg30
F0.0
sg31
F0.65735
sg32
F0.004564886970755239
ssS'HAYSLETT RODERICK J'
p388
(dp389
g3
F0.0693345742205677
sg4
I2649
sg5
F0.0
sg6
I0
sg7
F0.0
sg8
I00
sg9
F0.0
sg10
S'rod.hayslett@enron.com'
p390
sg12
F0.06628787878787878
sg13
F0.0
sg14
F0.0
sg15
F0.0
sg16
F0.10342329288172432
sg17
I0
sg18
I1061
sg19
I0
sg20
F0.06074551311550851
sg21
F0.0
sg22
F0.0
sg23
F0.0358
sg24
F0.0
sg25
F0.06239737274220033
sg26
F0.00794960004513147
sg27
F0.1699367575513423
sg28
F0.0
sg29
I0
sg30
F0.0
sg31
F0.5
sg32
F0.0
ssS'FUGH JOHN L'
p391
(dp392
g3
F0.9999999999999999
sg4
I0
sg5
F0.0
sg6
I50591
sg7
F0.0
sg8
I00
sg9
F0.0
sg10
I0
sg12
F0.0
sg13
F0.0
sg14
F0.0
sg15
F0.0
sg16
F0.0
sg17
I0
sg18
I0
sg19
I0
sg20
F0.0
sg21
F0.0
sg22
F0.0
sg23
F0.0
sg24
F0.0
sg25
F0.0
sg26
F0.004485295866346724
sg27
F0.1499748016029313
sg28
F0.0
sg29
I50591
sg30
F0.005134972288652648
sg31
F1.0
sg32
F0.0
ssS'FALLON JAMES B'
p393
(dp394
g3
F0.44448580735225685
sg4
I1755
sg5
F0.0006966118551810034
sg6
I0
sg7
F0.41931606072660355
sg8
I00
sg9
F0.07275324102884227
sg10
S'jim.fallon@enron.com'
p395
sg12
F0.07954545454545454
sg13
F0.02223544971151811
sg14
F0.0
sg15
F0.3345643383551817
sg16
F0.29052707842782105
sg17
I0
sg18
I75
sg19
I401481
sg20
F0.10998619420156466
sg21
F0.0
sg22
F0.3125
sg23
F0.4933
sg24
F0.0
sg25
F0.06075533661740558
sg26
F0.048347718040041815
sg27
F0.23013875702341977
sg28
F0.27409296491003887
sg29
I3676340
sg30
F0.027374126247103794
sg31
F0.5
sg32
F0.0026679341260037585
ssS'KOENIG MARK E'
p396
(dp397
g3
F0.39497440670079104
sg4
I2374
sg5
F0.0005635409423938674
sg6
I0
sg7
F0.5552340194874171
sg8
I01
sg9
F0.05830411973023073
sg10
S'mark.koenig@enron.com'
p398
sg12
F0.10037878787878789
sg13
F0.017511547417232202
sg14
F0.0
sg15
F0.09206042522663536
sg16
F0.411338525629415
sg17
I0
sg18
I61
sg19
I150458
sg20
F0.10262310170271514
sg21
F0.0
sg22
F0.0875
sg23
F0.2459
sg24
F0.0
sg25
F0.02463054187192118
sg26
F0.03995892840914762
sg27
F0.22185691456453532
sg28
F0.27891452749946455
sg29
I1587421
sg30
F0.01955658234169037
sg31
F0.5
sg32
F0.003471957462166847
ssS'SAVAGE FRANK'
p399
(dp400
g3
F0.0693345742205677
sg4
I0
sg5
F0.0
sg6
I0
sg7
F0.0
sg8
I00
sg9
F0.0
sg10
I0
sg12
F0.0
sg13
F0.0
sg14
F0.0
sg15
F0.0
sg16
F0.0
sg17
I0
sg18
I0
sg19
I0
sg20
F0.0
sg21
F125034.0
sg22
F0.0
sg23
F0.0
sg24
F0.03460920115535218
sg25
F0.0
sg26
F0.0008970347602851445
sg27
F0.1499748016029313
sg28
F0.0
sg29
I3750
sg30
F0.0
sg31
F0.5
sg32
F0.0
ssS'IZZO LAWRENCE L'
p401
(dp402
g3
F0.4155421126105165
sg4
I496
sg5
F0.006208729641096431
sg6
I0
sg7
F0.12280394993945701
sg8
I00
sg9
F0.06073345805232368
sg10
S'larry.izzo@enron.com'
p403
sg12
F0.05303030303030303
sg13
F0.06630289060846249
sg14
F0.0
sg15
F0.0
sg16
F0.07915232747690636
sg17
I0
sg18
I19
sg19
I1553729
sg20
F0.26000920386562354
sg21
F0.0
sg22
F0.0
sg23
F0.2632
sg24
F0.0
sg25
F0.008210180623973728
sg26
F0.11929960124848815
sg27
F0.36043024765832266
sg28
F0.07673645544059075
sg29
I1979596
sg30
F0.0630356292744369
sg31
F0.5
sg32
F0.0027907827916978027
ssS'TILNEY ELIZABETH A'
p404
(dp405
g3
F0.5404374127501163
sg4
I460
sg5
F0.0004296058146275972
sg6
I0
sg7
F0.0
sg8
I00
sg9
F0.05344544308604483
sg10
S'elizabeth.tilney@enron.com'
p406
sg12
F0.01893939393939394
sg13
F0.020115030910712636
sg14
F0.0
sg15
F0.04943993347681472
sg16
F0.06864698424198515
sg17
I0
sg18
I19
sg19
I152055
sg20
F0.09986194201564658
sg21
F0.0
sg22
F0.0375
sg23
F0.5789
sg24
F0.1640800984823019
sg25
F0.0180623973727422
sg26
F0.024659860502987633
sg27
F0.1831883158672049
sg28
F0.22257477561466374
sg29
I399393
sg30
F0.017213327998196363
sg31
F0.5
sg32
F0.0
ssS'MARTIN AMANDA K'
p407
(dp408
g3
F0.9999999999999999
sg4
I1522
sg5
F0.0005388880729890863
sg6
I85430
sg7
F0.03589304214405302
sg8
I00
sg9
F1.0
sg10
S'a..martin@enron.com'
p409
sg12
F0.015151515151515152
sg13
F0.26636947031142294
sg14
F0.0
sg15
F0.0
sg16
F0.08639739177685202
sg17
I0
sg18
I230
sg19
I2818454
sg20
F0.024390243902439025
sg21
F0.0
sg22
F0.0
sg23
F0.0
sg24
F0.0
sg25
F0.0
sg26
F0.043015657816708984
sg27
F0.1499748016029313
sg28
F0.3144967235331489
sg29
I8407016
sg30
F0.06027375261671699
sg31
F0.5051
sg32
F0.0001990995616420715
ssS'BUY RICHARD B'
p410
(dp411
g3
F0.7563517915309445
sg4
I3523
sg5
F0.0009479528621126261
sg6
I649584
sg7
F0.0
sg8
I00
sg9
F0.14962042074584964
sg10
S'rick.buy@enron.com'
p412
sg12
F0.29545454545454547
sg13
F0.04213880058836194
sg14
F0.0
sg15
F0.11098610839366073
sg16
F0.4225683752943307
sg17
I0
sg18
I1053
sg19
I400572
sg20
F0.203865623561896
sg21
F0.0
sg22
F0.11249999999999999
sg23
F0.0674
sg24
F0.19828352242019
sg25
F0.11658456486042693
sg26
F0.07097186116718356
sg27
F0.20189507378247287
sg28
F0.29745207683544234
sg29
I2355702
sg30
F0.07403006208385232
sg31
F0.63785
sg32
F0.0
ssS'GRAMM WENDY L'
p413
(dp414
g3
F0.0693345742205677
sg4
I0
sg5
F0.0
sg6
I0
sg7
F0.0
sg8
I00
sg9
F0.0
sg10
I0
sg12
F0.0
sg13
F0.0
sg14
F0.0
sg15
F0.0
sg16
F0.0
sg17
I0
sg18
I0
sg19
I0
sg20
F0.0
sg21
F119292.0
sg22
F0.0
sg23
F0.0
sg24
F0.0
sg25
F0.0
sg26
F0.0008970347602851445
sg27
F0.1499748016029313
sg28
F0.0
sg29
I119292
sg30
F0.0
sg31
F0.5
sg32
F0.0
ssS'CAUSEY RICHARD A'
p415
(dp416
g3
F0.0693345742205677
sg4
I1892
sg5
F0.0005482124977639574
sg6
I0
sg7
F0.13408636886209746
sg8
I01
sg9
F0.06802147301860252
sg10
S'richard.causey@enron.com'
p417
sg12
F0.10984848484848485
sg13
F0.015251817824906236
sg14
F0.0
sg15
F0.09817468858018653
sg16
F0.28708567288534687
sg17
I0
sg18
I49
sg19
I307895
sg20
F0.1412793373216751
sg21
F0.0
sg22
F0.125
sg23
F0.2449
sg24
F0.06705882285798426
sg25
F0.019704433497536946
sg26
F0.05179938849950292
sg27
F0.29405153141300355
sg28
F0.3736207073424893
sg29
I1868758
sg30
F0.0
sg31
F0.5
sg32
F0.0006261045789510248
ssS'TAYLOR MITCHELL S'
p418
(dp419
g3
F0.8599348534201954
sg4
I533
sg5
F0.001284578241985143
sg6
I227449
sg7
F0.0
sg8
I00
sg9
F0.0
sg10
S'mitchell.taylor@enron.com'
p420
sg12
F0.0
sg13
F0.0
sg14
F0.0
sg15
F0.09221531989825867
sg16
F0.054337982249592465
sg17
I0
sg18
I29
sg19
I0
sg20
F0.0
sg21
F0.0
sg22
F0.075
sg23
F0.0
sg24
F0.0
sg25
F0.0
sg26
F0.0770868661379723
sg27
F0.18244008010049875
sg28
F0.23866104900932097
sg29
I1092663
sg30
F0.09261716650192335
sg31
F0.6041
sg32
F0.0
ssS'DONAHUE JR JEFFREY M'
p421
(dp422
g3
F0.7287110283852954
sg4
I865
sg5
F0.00035297268847782744
sg6
I0
sg7
F0.4208198004047858
sg8
I00
sg9
F0.0
sg10
S'jeff.donahue@enron.com'
p423
sg12
F0.3560606060606061
sg13
F0.0
sg14
F0.0
sg15
F0.11704738146481446
sg16
F0.13982974098895126
sg17
I0
sg18
I22
sg19
I891
sg20
F1.0
sg21
F0.0
sg22
F0.09999999999999999
sg23
F0.5
sg24
F0.08560700790380969
sg25
F0.0180623973727422
sg26
F0.02288882056417959
sg27
F0.1681174171596938
sg28
F0.25070775643459936
sg29
I875760
sg30
F0.022298574512268174
sg31
F0.5
sg32
F0.002927187172227051
ssS'GLISAN JR BEN F'
p424
(dp425
g3
F0.5292694276407631
sg4
I873
sg5
F0.00025756335478139034
sg6
I0
sg7
F0.550692201098954
sg8
I01
sg9
F0.01380311165200059
sg10
S'ben.glisan@enron.com'
p426
sg12
F0.09848484848484848
sg13
F0.004673243824642089
sg14
F0.0
sg15
F0.08894215091632426
sg16
F0.1583046549538127
sg17
I0
sg18
I16
sg19
I200308
sg20
F0.27427519558214447
sg21
F0.0
sg22
F0.075
sg23
F0.375
sg24
F0.0
sg25
F0.009852216748768473
sg26
F0.016735894091266437
sg27
F0.17265209213492153
sg28
F0.24744478779905296
sg29
I1272284
sg30
F0.011200759837784508
sg31
F0.5
sg32
F0.003881170603754594
ss.